1 Basic Block: (0x80000000, 0x100000174)
  0x100000000: 00000297 		auipc  t0,0x0
  0x100000004: 18828293 		addi  t0,t0,392 # 100000188 <interrupt_handler>
  0x100000008: 30529073 		csrw  mtvec,t0
  0x10000000c: 400002b7 		lui  t0,0x40000
  0x100000010: 3b029073 		csrw  pmpaddr0,t0
  0x100000014: 400102b7 		lui  t0,0x40010
  0x100000018: 3b129073 		csrw  pmpaddr1,t0
  0x10000001c: 400202b7 		lui  t0,0x40020
  0x100000020: 3b229073 		csrw  pmpaddr2,t0
  0x100000024: 500002b7 		lui  t0,0x50000
  0x100000028: 3b329073 		csrw  pmpaddr3,t0
  0x10000002c: 08800293 		li  t0,136
  0x100000030: 08d00313 		li  t1,141
  0x100000034: 08900393 		li  t2,137
  0x100000038: 08b00e13 		li  t3,139
  0x10000003c: 00831313 		slli  t1,t1,0x8
  0x100000040: 01039393 		slli  t2,t2,0x10
  0x100000044: 018e1e13 		slli  t3,t3,0x18
  0x100000048: 006282b3 		add  t0,t0,t1
  0x10000004c: 007282b3 		add  t0,t0,t2
  0x100000050: 01c282b3 		add  t0,t0,t3
  0x100000054: 3a029073 		csrw  pmpcfg0,t0
  0x100000058: 00000093 		li  ra,0
  0x10000005c: 00000113 		li  sp,0
  0x100000060: 00000193 		li  gp,0
  0x100000064: 00000213 		li  tp,0
  0x100000068: 00000293 		li  t0,0
  0x10000006c: 00000313 		li  t1,0
  0x100000070: 00000393 		li  t2,0
  0x100000074: 00000413 		li  s0,0
  0x100000078: 00000493 		li  s1,0
  0x10000007c: 00000513 		li  a0,0
  0x100000080: 00000593 		li  a1,0
  0x100000084: 00000613 		li  a2,0
  0x100000088: 00000693 		li  a3,0
  0x10000008c: 00000713 		li  a4,0
  0x100000090: 00000793 		li  a5,0
  0x100000094: 00000813 		li  a6,0
  0x100000098: 00000893 		li  a7,0
  0x10000009c: 00000913 		li  s2,0
  0x1000000a0: 00000993 		li  s3,0
  0x1000000a4: 00000a13 		li  s4,0
  0x1000000a8: 00000a93 		li  s5,0
  0x1000000ac: 00000b13 		li  s6,0
  0x1000000b0: 00000b93 		li  s7,0
  0x1000000b4: 00000c13 		li  s8,0
  0x1000000b8: 00000c93 		li  s9,0
  0x1000000bc: 00000d13 		li  s10,0
  0x1000000c0: 00000d93 		li  s11,0
  0x1000000c4: 00000e13 		li  t3,0
  0x1000000c8: 00000e93 		li  t4,0
  0x1000000cc: 00000f13 		li  t5,0
  0x1000000d0: 00000f93 		li  t6,0
  0x1000000d4: 00000413 		li  s0,0
  0x1000000d8: 00103117 		auipc  sp,0x103
  0x1000000dc: f2810113 		addi  sp,sp,-216 # 100103000 <_end>
  0x1000000e0: 00002537 		lui  a0,0x2
  0x1000000e4: 30052073 		csrs  mstatus,a0
  0x1000000e8: 00305073 		csrwi  fcsr,0
  0x1000000ec: f0000053 		fmv.w.x  ft0,zero
  0x1000000f0: f00000d3 		fmv.w.x  ft1,zero
  0x1000000f4: f0000153 		fmv.w.x  ft2,zero
  0x1000000f8: f00001d3 		fmv.w.x  ft3,zero
  0x1000000fc: f0000253 		fmv.w.x  ft4,zero
  0x100000100: f00002d3 		fmv.w.x  ft5,zero
  0x100000104: f0000353 		fmv.w.x  ft6,zero
  0x100000108: f00003d3 		fmv.w.x  ft7,zero
  0x10000010c: f0000453 		fmv.w.x  fs0,zero
  0x100000110: f00004d3 		fmv.w.x  fs1,zero
  0x100000114: f0000553 		fmv.w.x  fa0,zero
  0x100000118: f00005d3 		fmv.w.x  fa1,zero
  0x10000011c: f0000653 		fmv.w.x  fa2,zero
  0x100000120: f00006d3 		fmv.w.x  fa3,zero
  0x100000124: f0000753 		fmv.w.x  fa4,zero
  0x100000128: f00007d3 		fmv.w.x  fa5,zero
  0x10000012c: f0000853 		fmv.w.x  fa6,zero
  0x100000130: f00008d3 		fmv.w.x  fa7,zero
  0x100000134: f0000953 		fmv.w.x  fs2,zero
  0x100000138: f00009d3 		fmv.w.x  fs3,zero
  0x10000013c: f0000a53 		fmv.w.x  fs4,zero
  0x100000140: f0000ad3 		fmv.w.x  fs5,zero
  0x100000144: f0000b53 		fmv.w.x  fs6,zero
  0x100000148: f0000bd3 		fmv.w.x  fs7,zero
  0x10000014c: f0000c53 		fmv.w.x  fs8,zero
  0x100000150: f0000cd3 		fmv.w.x  fs9,zero
  0x100000154: f0000d53 		fmv.w.x  fs10,zero
  0x100000158: f0000dd3 		fmv.w.x  fs11,zero
  0x10000015c: f0000e53 		fmv.w.x  ft8,zero
  0x100000160: f0000ed3 		fmv.w.x  ft9,zero
  0x100000164: f0000f53 		fmv.w.x  ft10,zero
  0x100000168: f0000fd3 		fmv.w.x  ft11,zero
  0x10000016c: 00200393 		li  t2,2
  0x100000170: 00100293 		li  t0,1
  0x100000174: 00029463 		bnez  t0,10000017c <_start+0x17c>

2 Basic Block: (0x10000017c, 0x10000017c)
  0x10000017c: 00729463 		bne  t0,t2,100000184 <_start+0x184>

3 Basic Block: (0x100000184, 0x100000184)
  0x100000184: 6b5040ef 		jal  100005038 <_trm_init>

4 Basic Block: (0x100005038, 0x100005048)
  0x100005038: ff010113 		addi  sp,sp,-16
  0x10000503c: 0003b517 		auipc  a0,0x3b
  0x100005040: 69450513 		addi  a0,a0,1684 # 1000406d0 <__am_mainargs>
  0x100005044: 00113423 		sd  ra,8(sp)
  0x100005048: f64ff0ef 		jal  1000047ac <main>

5 Basic Block: (0x1000047ac, 0x1000047d8)
  0x1000047ac: fb010113 		addi  sp,sp,-80
  0x1000047b0: 04113423 		sd  ra,72(sp)
  0x1000047b4: 04813023 		sd  s0,64(sp)
  0x1000047b8: 02913c23 		sd  s1,56(sp)
  0x1000047bc: 03213823 		sd  s2,48(sp)
  0x1000047c0: 03313423 		sd  s3,40(sp)
  0x1000047c4: 03413023 		sd  s4,32(sp)
  0x1000047c8: 01513c23 		sd  s5,24(sp)
  0x1000047cc: 01613823 		sd  s6,16(sp)
  0x1000047d0: 01713423 		sd  s7,8(sp)
  0x1000047d4: 01813023 		sd  s8,0(sp)
  0x1000047d8: 10050063 		beqz  a0,1000048d8 <main+0x12c>

6 Basic Block: (0x1000047dc, 0x1000047e8)
  0x1000047dc: 0003c597 		auipc  a1,0x3c
  0x1000047e0: 87c58593 		addi  a1,a1,-1924 # 100040058 <b2+0x58>
  0x1000047e4: 00050413 		mv  s0,a0
  0x1000047e8: 0b5000ef 		jal  10000509c <strcmp>

7 Basic Block: (0x10000509c, 0x1000050a0)
  0x10000509c: 00054783 		lbu  a5,0(a0)
  0x1000050a0: 00079a63 		bnez  a5,1000050b4 <strcmp+0x18>

8 Basic Block: (0x1000050a4, 0x1000050a4)
  0x1000050a4: 03c0006f 		j  1000050e0 <strcmp+0x44>

9 Basic Block: (0x1000050e0, 0x1000050e8)
  0x1000050e0: 0005c703 		lbu  a4,0(a1)
  0x1000050e4: 00000513 		li  a0,0
  0x1000050e8: fe1ff06f 		j  1000050c8 <strcmp+0x2c>

10 Basic Block: (0x1000050c8, 0x1000050cc)
  0x1000050c8: 40e5053b 		subw  a0,a0,a4
  0x1000050cc: 00008067 		ret

11 Basic Block: (0x1000047ec, 0x1000047ec)
  0x1000047ec: 0e050663 		beqz  a0,1000048d8 <main+0x12c>

12 Basic Block: (0x1000048d8, 0x1000048ec)
  0x1000048d8: 0003c417 		auipc  s0,0x3c
  0x1000048dc: 8c040413 		addi  s0,s0,-1856 # 100040198 <b2+0x198>
  0x1000048e0: 0003c597 		auipc  a1,0x3c
  0x1000048e4: 8c058593 		addi  a1,a1,-1856 # 1000401a0 <b2+0x1a0>
  0x1000048e8: 00040513 		mv  a0,s0
  0x1000048ec: 7b0000ef 		jal  10000509c <strcmp>

13 Basic Block: (0x1000050b4, 0x1000050c0)
  0x1000050b4: 0005c703 		lbu  a4,0(a1)
  0x1000050b8: 00150513 		addi  a0,a0,1
  0x1000050bc: 00158693 		addi  a3,a1,1
  0x1000050c0: fef704e3 		beq  a4,a5,1000050a8 <strcmp+0xc>

14 Basic Block: (0x1000050c4, 0x1000050cc)
  0x1000050c4: 0007851b 		sext.w  a0,a5
  0x1000050c8: 40e5053b 		subw  a0,a0,a4
  0x1000050cc: 00008067 		ret

15 Basic Block: (0x1000048f0, 0x1000048f4)
  0x1000048f0: 02000b13 		li  s6,32
  0x1000048f4: f0050ae3 		beqz  a0,100004808 <main+0x5c>

16 Basic Block: (0x1000048f8, 0x100004904)
  0x1000048f8: 0003c597 		auipc  a1,0x3c
  0x1000048fc: 8b058593 		addi  a1,a1,-1872 # 1000401a8 <b2+0x1a8>
  0x100004900: 00040513 		mv  a0,s0
  0x100004904: 798000ef 		jal  10000509c <strcmp>

17 Basic Block: (0x100004908, 0x100004908)
  0x100004908: 00051863 		bnez  a0,100004918 <main+0x16c>

18 Basic Block: (0x100004918, 0x100004924)
  0x100004918: 0003c597 		auipc  a1,0x3c
  0x10000491c: 88058593 		addi  a1,a1,-1920 # 100040198 <b2+0x198>
  0x100004920: 00040513 		mv  a0,s0
  0x100004924: 778000ef 		jal  10000509c <strcmp>

19 Basic Block: (0x1000050a8, 0x1000050ac)
  0x1000050a8: 00054783 		lbu  a5,0(a0)
  0x1000050ac: 02078263 		beqz  a5,1000050d0 <strcmp+0x34>

20 Basic Block: (0x1000050b0, 0x1000050c0)
  0x1000050b0: 00068593 		mv  a1,a3
  0x1000050b4: 0005c703 		lbu  a4,0(a1)
  0x1000050b8: 00150513 		addi  a0,a0,1
  0x1000050bc: 00158693 		addi  a3,a1,1
  0x1000050c0: fef704e3 		beq  a4,a5,1000050a8 <strcmp+0xc>

21 Basic Block: (0x1000050d0, 0x1000050dc)
  0x1000050d0: 0015c703 		lbu  a4,1(a1)
  0x1000050d4: 00000513 		li  a0,0
  0x1000050d8: 40e5053b 		subw  a0,a0,a4
  0x1000050dc: 00008067 		ret

22 Basic Block: (0x100004928, 0x100004934)
  0x100004928: 00050793 		mv  a5,a0
  0x10000492c: 06000b13 		li  s6,96
  0x100004930: 00200513 		li  a0,2
  0x100004934: ec078ae3 		beqz  a5,100004808 <main+0x5c>

23 Basic Block: (0x100004808, 0x100004864)
  0x100004808: 0007b417 		auipc  s0,0x7b
  0x10000480c: 7f840413 		addi  s0,s0,2040 # 100080000 <benchmarks>
  0x100004810: 0007cc17 		auipc  s8,0x7c
  0x100004814: d40c0c13 		addi  s8,s8,-704 # 100080550 <_ZL8PUZZLE_S>
  0x100004818: 00551a93 		slli  s5,a0,0x5
  0x10000481c: 00100a13 		li  s4,1
  0x100004820: 000fc917 		auipc  s2,0xfc
  0x100004824: 8f890913 		addi  s2,s2,-1800 # 100100118 <current>
  0x100004828: 000fcb97 		auipc  s7,0xfc
  0x10000482c: 8e8b8b93 		addi  s7,s7,-1816 # 100100110 <setting>
  0x100004830: 008b0b13 		addi  s6,s6,8
  0x100004834: 0007c497 		auipc  s1,0x7c
  0x100004838: ddc48493 		addi  s1,s1,-548 # 100080610 <_heap>
  0x10000483c: 000fc997 		auipc  s3,0xfc
  0x100004840: 8cc98993 		addi  s3,s3,-1844 # 100100108 <hbrk>
  0x100004844: 0004b783 		ld  a5,0(s1)
  0x100004848: 0084b703 		ld  a4,8(s1)
  0x10000484c: 015406b3 		add  a3,s0,s5
  0x100004850: 0306b683 		ld  a3,48(a3)
  0x100004854: 008b0633 		add  a2,s6,s0
  0x100004858: 00893023 		sd  s0,0(s2)
  0x10000485c: 00cbb023 		sd  a2,0(s7)
  0x100004860: 40f70733 		sub  a4,a4,a5
  0x100004864: 02d76c63 		bltu  a4,a3,10000489c <main+0xf0>

24 Basic Block: (0x100004868, 0x100004878)
  0x100004868: 00043703 		ld  a4,0(s0)
  0x10000486c: 00778793 		addi  a5,a5,7
  0x100004870: ff87f793 		andi  a5,a5,-8
  0x100004874: 00f9b023 		sd  a5,0(s3)
  0x100004878: 000700e7 		jalr  a4

25 Basic Block: (0x1000029d8, 0x1000029ec)
  0x1000029d8: fd010113 		addi  sp,sp,-48
  0x1000029dc: 00100513 		li  a0,1
  0x1000029e0: 02113423 		sd  ra,40(sp)
  0x1000029e4: 01213823 		sd  s2,16(sp)
  0x1000029e8: 01313423 		sd  s3,8(sp)
  0x1000029ec: 0ed000ef 		jal  1000032d8 <bench_srand>

26 Basic Block: (0x1000032d8, 0x1000032e8)
  0x1000032d8: 03151513 		slli  a0,a0,0x31
  0x1000032dc: 03155513 		srli  a0,a0,0x31
  0x1000032e0: 0007d797 		auipc  a5,0x7d
  0x1000032e4: 34a7a023 		sw  a0,832(a5) # 100080620 <seed>
  0x1000032e8: 00008067 		ret

27 Basic Block: (0x1000029f0, 0x100002a14)
  0x1000029f0: 000fd797 		auipc  a5,0xfd
  0x1000029f4: 7207b783 		ld  a5,1824(a5) # 100100110 <setting>
  0x1000029f8: 0007a783 		lw  a5,0(a5)
  0x1000029fc: 000fd917 		auipc  s2,0xfd
  0x100002a00: 6b490913 		addi  s2,s2,1716 # 1001000b0 <N>
  0x100002a04: 000fd997 		auipc  s3,0xfd
  0x100002a08: 6a498993 		addi  s3,s3,1700 # 1001000a8 <data>
  0x100002a0c: 00279513 		slli  a0,a5,0x2
  0x100002a10: 00f92023 		sw  a5,0(s2)
  0x100002a14: 025000ef 		jal  100003238 <bench_alloc>

28 Basic Block: (0x100003238, 0x100003268)
  0x100003238: 000fd597 		auipc  a1,0xfd
  0x10000323c: ed058593 		addi  a1,a1,-304 # 100100108 <hbrk>
  0x100003240: 0005b683 		ld  a3,0(a1)
  0x100003244: 00750713 		addi  a4,a0,7
  0x100003248: 0007d797 		auipc  a5,0x7d
  0x10000324c: 3c878793 		addi  a5,a5,968 # 100080610 <_heap>
  0x100003250: ff010113 		addi  sp,sp,-16
  0x100003254: ff877713 		andi  a4,a4,-8
  0x100003258: 0007b603 		ld  a2,0(a5)
  0x10000325c: 00113423 		sd  ra,8(sp)
  0x100003260: 00e68733 		add  a4,a3,a4
  0x100003264: 00e5b023 		sd  a4,0(a1)
  0x100003268: 04c76263 		bltu  a4,a2,1000032ac <bench_alloc+0x74>

29 Basic Block: (0x10000326c, 0x100003270)
  0x10000326c: 0087b783 		ld  a5,8(a5)
  0x100003270: 02f77e63 		bgeu  a4,a5,1000032ac <bench_alloc+0x74>

30 Basic Block: (0x100003274, 0x100003278)
  0x100003274: 00068793 		mv  a5,a3
  0x100003278: 00d70863 		beq  a4,a3,100003288 <bench_alloc+0x50>

31 Basic Block: (0x10000327c, 0x100003284)
  0x10000327c: 0007b023 		sd  zero,0(a5)
  0x100003280: 00878793 		addi  a5,a5,8
  0x100003284: fef71ce3 		bne  a4,a5,10000327c <bench_alloc+0x44>

32 Basic Block: (0x100003284, 0x100003284)
  0x100003284: fef71ce3 		bne  a4,a5,10000327c <bench_alloc+0x44>

33 Basic Block: (0x100003288, 0x100003298)
  0x100003288: 000fd797 		auipc  a5,0xfd
  0x10000328c: e887b783 		ld  a5,-376(a5) # 100100110 <setting>
  0x100003290: 0087b783 		ld  a5,8(a5)
  0x100003294: 40c70733 		sub  a4,a4,a2
  0x100003298: 02e7ea63 		bltu  a5,a4,1000032cc <bench_alloc+0x94>

34 Basic Block: (0x10000329c, 0x1000032a8)
  0x10000329c: 00813083 		ld  ra,8(sp)
  0x1000032a0: 00068513 		mv  a0,a3
  0x1000032a4: 01010113 		addi  sp,sp,16
  0x1000032a8: 00008067 		ret

35 Basic Block: (0x100002a18, 0x100002a20)
  0x100002a18: 00092783 		lw  a5,0(s2)
  0x100002a1c: 00a9b023 		sd  a0,0(s3)
  0x100002a20: 04f05663 		blez  a5,100002a6c <bench_qsort_prepare+0x94>

36 Basic Block: (0x100002a24, 0x100002a30)
  0x100002a24: 00913c23 		sd  s1,24(sp)
  0x100002a28: 02813023 		sd  s0,32(sp)
  0x100002a2c: 00000493 		li  s1,0
  0x100002a30: 0bd000ef 		jal  1000032ec <bench_rand>

37 Basic Block: (0x1000032ec, 0x10000331c)
  0x1000032ec: 0007d697 		auipc  a3,0x7d
  0x1000032f0: 33468693 		addi  a3,a3,820 # 100080620 <seed>
  0x1000032f4: 0006a703 		lw  a4,0(a3)
  0x1000032f8: 000347b7 		lui  a5,0x34
  0x1000032fc: 3fd7879b 		addiw  a5,a5,1021 # 343fd <i+0x343dd>
  0x100003300: 02e787bb 		mulw  a5,a5,a4
  0x100003304: 0026a737 		lui  a4,0x26a
  0x100003308: ec37071b 		addiw  a4,a4,-317 # 269ec3 <i+0x269ea3>
  0x10000330c: 00e787bb 		addw  a5,a5,a4
  0x100003310: 02179513 		slli  a0,a5,0x21
  0x100003314: 00f6a023 		sw  a5,0(a3)
  0x100003318: 03155513 		srli  a0,a0,0x31
  0x10000331c: 00008067 		ret

38 Basic Block: (0x100002a34, 0x100002a38)
  0x100002a34: 0005041b 		sext.w  s0,a0
  0x100002a38: 0b5000ef 		jal  1000032ec <bench_rand>

39 Basic Block: (0x100002a3c, 0x100002a60)
  0x100002a3c: 0009b783 		ld  a5,0(s3)
  0x100002a40: 00249693 		slli  a3,s1,0x2
  0x100002a44: 0104141b 		slliw  s0,s0,0x10
  0x100002a48: 00092703 		lw  a4,0(s2)
  0x100002a4c: 00d787b3 		add  a5,a5,a3
  0x100002a50: 00856533 		or  a0,a0,s0
  0x100002a54: 00148493 		addi  s1,s1,1
  0x100002a58: 00a7a023 		sw  a0,0(a5)
  0x100002a5c: 0004879b 		sext.w  a5,s1
  0x100002a60: fce7c8e3 		blt  a5,a4,100002a30 <bench_qsort_prepare+0x58>

40 Basic Block: (0x100002a30, 0x100002a30)
  0x100002a30: 0bd000ef 		jal  1000032ec <bench_rand>

41 Basic Block: (0x10000331c, 0x10000331c)
  0x10000331c: 00008067 		ret

42 Basic Block: (0x100002a60, 0x100002a60)
  0x100002a60: fce7c8e3 		blt  a5,a4,100002a30 <bench_qsort_prepare+0x58>

43 Basic Block: (0x100002a38, 0x100002a38)
  0x100002a38: 0b5000ef 		jal  1000032ec <bench_rand>

44 Basic Block: (0x100002a64, 0x100002a7c)
  0x100002a64: 02013403 		ld  s0,32(sp)
  0x100002a68: 01813483 		ld  s1,24(sp)
  0x100002a6c: 02813083 		ld  ra,40(sp)
  0x100002a70: 01013903 		ld  s2,16(sp)
  0x100002a74: 00813983 		ld  s3,8(sp)
  0x100002a78: 03010113 		addi  sp,sp,48
  0x100002a7c: 00008067 		ret

45 Basic Block: (0x10000487c, 0x100004884)
  0x10000487c: 00093783 		ld  a5,0(s2)
  0x100004880: 0087b783 		ld  a5,8(a5)
  0x100004884: 000780e7 		jalr  a5

46 Basic Block: (0x100002a80, 0x100002a94)
  0x100002a80: 000fd617 		auipc  a2,0xfd
  0x100002a84: 63062603 		lw  a2,1584(a2) # 1001000b0 <N>
  0x100002a88: 00000593 		li  a1,0
  0x100002a8c: 000fd517 		auipc  a0,0xfd
  0x100002a90: 61c53503 		ld  a0,1564(a0) # 1001000a8 <data>
  0x100002a94: e61ff06f 		j  1000028f4 <myqsort>

47 Basic Block: (0x1000028f4, 0x10000291c)
  0x1000028f4: fd010113 		addi  sp,sp,-48
  0x1000028f8: 00913c23 		sd  s1,24(sp)
  0x1000028fc: 01313423 		sd  s3,8(sp)
  0x100002900: 01413023 		sd  s4,0(sp)
  0x100002904: 02113423 		sd  ra,40(sp)
  0x100002908: 02813023 		sd  s0,32(sp)
  0x10000290c: 01213823 		sd  s2,16(sp)
  0x100002910: 00050993 		mv  s3,a0
  0x100002914: 00060a13 		mv  s4,a2
  0x100002918: 00850493 		addi  s1,a0,8
  0x10000291c: 0945da63 		bge  a1,s4,1000029b0 <myqsort+0xbc>

48 Basic Block: (0x100002920, 0x100002934)
  0x100002920: ffea041b 		addiw  s0,s4,-2
  0x100002924: 00259793 		slli  a5,a1,0x2
  0x100002928: 00f98333 		add  t1,s3,a5
  0x10000292c: 0015871b 		addiw  a4,a1,1
  0x100002930: 00032883 		lw  a7,0(t1)
  0x100002934: 09475e63 		bge  a4,s4,1000029d0 <myqsort+0xdc>

49 Basic Block: (0x100002938, 0x100002960)
  0x100002938: 40b4083b 		subw  a6,s0,a1
  0x10000293c: 02081813 		slli  a6,a6,0x20
  0x100002940: 02085813 		srli  a6,a6,0x20
  0x100002944: 00b80833 		add  a6,a6,a1
  0x100002948: 00478793 		addi  a5,a5,4
  0x10000294c: 00281813 		slli  a6,a6,0x2
  0x100002950: 00f987b3 		add  a5,s3,a5
  0x100002954: 00980833 		add  a6,a6,s1
  0x100002958: 00058913 		mv  s2,a1
  0x10000295c: 0007a683 		lw  a3,0(a5)
  0x100002960: 0116de63 		bge  a3,a7,10000297c <myqsort+0x88>

50 Basic Block: (0x10000297c, 0x100002980)
  0x10000297c: 00478793 		addi  a5,a5,4
  0x100002980: fd079ee3 		bne  a5,a6,10000295c <myqsort+0x68>

51 Basic Block: (0x10000295c, 0x100002960)
  0x10000295c: 0007a683 		lw  a3,0(a5)
  0x100002960: 0116de63 		bge  a3,a7,10000297c <myqsort+0x88>

52 Basic Block: (0x100002964, 0x100002980)
  0x100002964: 0019091b 		addiw  s2,s2,1
  0x100002968: 00291713 		slli  a4,s2,0x2
  0x10000296c: 00e98733 		add  a4,s3,a4
  0x100002970: 00072503 		lw  a0,0(a4)
  0x100002974: 00d72023 		sw  a3,0(a4)
  0x100002978: 00a7a023 		sw  a0,0(a5)
  0x10000297c: 00478793 		addi  a5,a5,4
  0x100002980: fd079ee3 		bne  a5,a6,10000295c <myqsort+0x68>

53 Basic Block: (0x100002960, 0x100002960)
  0x100002960: 0116de63 		bge  a3,a7,10000297c <myqsort+0x88>

54 Basic Block: (0x100002980, 0x100002980)
  0x100002980: fd079ee3 		bne  a5,a6,10000295c <myqsort+0x68>

55 Basic Block: (0x100002984, 0x1000029a4)
  0x100002984: 00291793 		slli  a5,s2,0x2
  0x100002988: 00032683 		lw  a3,0(t1)
  0x10000298c: 00f987b3 		add  a5,s3,a5
  0x100002990: 0007a703 		lw  a4,0(a5)
  0x100002994: 00d7a023 		sw  a3,0(a5)
  0x100002998: 00090613 		mv  a2,s2
  0x10000299c: 00e32023 		sw  a4,0(t1)
  0x1000029a0: 00098513 		mv  a0,s3
  0x1000029a4: f51ff0ef 		jal  1000028f4 <myqsort>

56 Basic Block: (0x1000029b0, 0x1000029cc)
  0x1000029b0: 02813083 		ld  ra,40(sp)
  0x1000029b4: 02013403 		ld  s0,32(sp)
  0x1000029b8: 01813483 		ld  s1,24(sp)
  0x1000029bc: 01013903 		ld  s2,16(sp)
  0x1000029c0: 00813983 		ld  s3,8(sp)
  0x1000029c4: 00013a03 		ld  s4,0(sp)
  0x1000029c8: 03010113 		addi  sp,sp,48
  0x1000029cc: 00008067 		ret

57 Basic Block: (0x1000029a8, 0x1000029ac)
  0x1000029a8: 0019059b 		addiw  a1,s2,1
  0x1000029ac: f745cce3 		blt  a1,s4,100002924 <myqsort+0x30>

58 Basic Block: (0x100002924, 0x100002934)
  0x100002924: 00259793 		slli  a5,a1,0x2
  0x100002928: 00f98333 		add  t1,s3,a5
  0x10000292c: 0015871b 		addiw  a4,a1,1
  0x100002930: 00032883 		lw  a7,0(t1)
  0x100002934: 09475e63 		bge  a4,s4,1000029d0 <myqsort+0xdc>

59 Basic Block: (0x1000029d0, 0x1000029d4)
  0x1000029d0: 00058a13 		mv  s4,a1
  0x1000029d4: f49ff06f 		j  10000291c <myqsort+0x28>

60 Basic Block: (0x10000291c, 0x10000291c)
  0x10000291c: 0945da63 		bge  a1,s4,1000029b0 <myqsort+0xbc>

61 Basic Block: (0x100002934, 0x100002934)
  0x100002934: 09475e63 		bge  a4,s4,1000029d0 <myqsort+0xdc>

62 Basic Block: (0x1000029ac, 0x1000029ac)
  0x1000029ac: f745cce3 		blt  a1,s4,100002924 <myqsort+0x30>

63 Basic Block: (0x1000029cc, 0x1000029cc)
  0x1000029cc: 00008067 		ret

64 Basic Block: (0x1000029a4, 0x1000029a4)
  0x1000029a4: f51ff0ef 		jal  1000028f4 <myqsort>

65 Basic Block: (0x100004888, 0x100004890)
  0x100004888: 00093783 		ld  a5,0(s2)
  0x10000488c: 0107b783 		ld  a5,16(a5)
  0x100004890: 000780e7 		jalr  a5

66 Basic Block: (0x100002a98, 0x100002ab8)
  0x100002a98: 000fd597 		auipc  a1,0xfd
  0x100002a9c: 6185a583 		lw  a1,1560(a1) # 1001000b0 <N>
  0x100002aa0: 000fd517 		auipc  a0,0xfd
  0x100002aa4: 60853503 		ld  a0,1544(a0) # 1001000a8 <data>
  0x100002aa8: 00259593 		slli  a1,a1,0x2
  0x100002aac: ff010113 		addi  sp,sp,-16
  0x100002ab0: 00b505b3 		add  a1,a0,a1
  0x100002ab4: 00113423 		sd  ra,8(sp)
  0x100002ab8: 069000ef 		jal  100003320 <checksum>

67 Basic Block: (0x100003320, 0x100003334)
  0x100003320: 811ca6b7 		lui  a3,0x811ca
  0x100003324: 01000837 		lui  a6,0x1000
  0x100003328: 00450613 		addi  a2,a0,4
  0x10000332c: dc568693 		addi  a3,a3,-571 # ffffffff811c9dc5 <_pmem_end+0xfffffffe411c9dc5>
  0x100003330: 1938081b 		addiw  a6,a6,403 # 1000193 <i+0x1000173>
  0x100003334: 04b67c63 		bgeu  a2,a1,10000338c <checksum+0x6c>

68 Basic Block: (0x100003338, 0x10000334c)
  0x100003338: 00050793 		mv  a5,a0
  0x10000333c: 0007c703 		lbu  a4,0(a5)
  0x100003340: 00178793 		addi  a5,a5,1
  0x100003344: 00e6c733 		xor  a4,a3,a4
  0x100003348: 02e806bb 		mulw  a3,a6,a4
  0x10000334c: fef618e3 		bne  a2,a5,10000333c <checksum+0x1c>

69 Basic Block: (0x10000333c, 0x10000334c)
  0x10000333c: 0007c703 		lbu  a4,0(a5)
  0x100003340: 00178793 		addi  a5,a5,1
  0x100003344: 00e6c733 		xor  a4,a3,a4
  0x100003348: 02e806bb 		mulw  a3,a6,a4
  0x10000334c: fef618e3 		bne  a2,a5,10000333c <checksum+0x1c>

70 Basic Block: (0x100003350, 0x100003358)
  0x100003350: 00460613 		addi  a2,a2,4
  0x100003354: 00450513 		addi  a0,a0,4
  0x100003358: feb660e3 		bltu  a2,a1,100003338 <checksum+0x18>

71 Basic Block: (0x100003358, 0x100003358)
  0x100003358: feb660e3 		bltu  a2,a1,100003338 <checksum+0x18>

72 Basic Block: (0x10000334c, 0x10000334c)
  0x10000334c: fef618e3 		bne  a2,a5,10000333c <checksum+0x1c>

73 Basic Block: (0x10000335c, 0x100003388)
  0x10000335c: 013267b7 		lui  a5,0x1326
  0x100003360: 1937879b 		addiw  a5,a5,403 # 1326193 <i+0x1326173>
  0x100003364: 02f707bb 		mulw  a5,a4,a5
  0x100003368: 4077d71b 		sraiw  a4,a5,0x7
  0x10000336c: 00e7c733 		xor  a4,a5,a4
  0x100003370: 0037179b 		slliw  a5,a4,0x3
  0x100003374: 00e7873b 		addw  a4,a5,a4
  0x100003378: 4117579b 		sraiw  a5,a4,0x11
  0x10000337c: 00f747b3 		xor  a5,a4,a5
  0x100003380: 0057951b 		slliw  a0,a5,0x5
  0x100003384: 00f5053b 		addw  a0,a0,a5
  0x100003388: 00008067 		ret

74 Basic Block: (0x100002abc, 0x100002adc)
  0x100002abc: 000fd797 		auipc  a5,0xfd
  0x100002ac0: 6547b783 		ld  a5,1620(a5) # 100100110 <setting>
  0x100002ac4: 0187a783 		lw  a5,24(a5)
  0x100002ac8: 00813083 		ld  ra,8(sp)
  0x100002acc: 0005051b 		sext.w  a0,a0
  0x100002ad0: 40a78533 		sub  a0,a5,a0
  0x100002ad4: 00153513 		seqz  a0,a0
  0x100002ad8: 01010113 		addi  sp,sp,16
  0x100002adc: 00008067 		ret

75 Basic Block: (0x100004894, 0x1000048a0)
  0x100004894: 00aa7a33 		and  s4,s4,a0
  0x100004898: 000a0a1b 		sext.w  s4,s4
  0x10000489c: 08840413 		addi  s0,s0,136
  0x1000048a0: fa8c12e3 		bne  s8,s0,100004844 <main+0x98>

76 Basic Block: (0x100004844, 0x100004864)
  0x100004844: 0004b783 		ld  a5,0(s1)
  0x100004848: 0084b703 		ld  a4,8(s1)
  0x10000484c: 015406b3 		add  a3,s0,s5
  0x100004850: 0306b683 		ld  a3,48(a3)
  0x100004854: 008b0633 		add  a2,s6,s0
  0x100004858: 00893023 		sd  s0,0(s2)
  0x10000485c: 00cbb023 		sd  a2,0(s7)
  0x100004860: 40f70733 		sub  a4,a4,a5
  0x100004864: 02d76c63 		bltu  a4,a3,10000489c <main+0xf0>

77 Basic Block: (0x100003188, 0x1000031b0)
  0x100003188: 000fd797 		auipc  a5,0xfd
  0x10000318c: f887b783 		ld  a5,-120(a5) # 100100110 <setting>
  0x100003190: 0007a703 		lw  a4,0(a5)
  0x100003194: 000fd797 		auipc  a5,0xfd
  0x100003198: f607a423 		sw  zero,-152(a5) # 1001000fc <ans>
  0x10000319c: 00100793 		li  a5,1
  0x1000031a0: 00e797bb 		sllw  a5,a5,a4
  0x1000031a4: fff7879b 		addiw  a5,a5,-1
  0x1000031a8: 000fd717 		auipc  a4,0xfd
  0x1000031ac: f4f72c23 		sw  a5,-168(a4) # 100100100 <FULL>
  0x1000031b0: 00008067 		ret

78 Basic Block: (0x1000031b4, 0x1000031d0)
  0x1000031b4: fe010113 		addi  sp,sp,-32
  0x1000031b8: 00813823 		sd  s0,16(sp)
  0x1000031bc: 00913423 		sd  s1,8(sp)
  0x1000031c0: 00113c23 		sd  ra,24(sp)
  0x1000031c4: 000fd417 		auipc  s0,0xfd
  0x1000031c8: f3c42403 		lw  s0,-196(s0) # 100100100 <FULL>
  0x1000031cc: 00100493 		li  s1,1
  0x1000031d0: 02040663 		beqz  s0,1000031fc <bench_queen_run+0x48>

79 Basic Block: (0x1000031d4, 0x1000031f0)
  0x1000031d4: 00000493 		li  s1,0
  0x1000031d8: 408007bb 		negw  a5,s0
  0x1000031dc: 00f477b3 		and  a5,s0,a5
  0x1000031e0: 0017959b 		slliw  a1,a5,0x1
  0x1000031e4: 0017d61b 		srliw  a2,a5,0x1
  0x1000031e8: 0007851b 		sext.w  a0,a5
  0x1000031ec: 40f4043b 		subw  s0,s0,a5
  0x1000031f0: ef5ff0ef 		jal  1000030e4 <dfs>

80 Basic Block: (0x1000030e4, 0x1000030fc)
  0x1000030e4: fd010113 		addi  sp,sp,-48
  0x1000030e8: 01413023 		sd  s4,0(sp)
  0x1000030ec: 02113423 		sd  ra,40(sp)
  0x1000030f0: 000fd797 		auipc  a5,0xfd
  0x1000030f4: 0107a783 		lw  a5,16(a5) # 100100100 <FULL>
  0x1000030f8: 00100a13 		li  s4,1
  0x1000030fc: 06a78c63 		beq  a5,a0,100003174 <dfs+0x90>

81 Basic Block: (0x100003100, 0x100003130)
  0x100003100: 02813023 		sd  s0,32(sp)
  0x100003104: 00c5e433 		or  s0,a1,a2
  0x100003108: 00a46433 		or  s0,s0,a0
  0x10000310c: fff44413 		not  s0,s0
  0x100003110: 00913c23 		sd  s1,24(sp)
  0x100003114: 01213823 		sd  s2,16(sp)
  0x100003118: 01313423 		sd  s3,8(sp)
  0x10000311c: 00f47433 		and  s0,s0,a5
  0x100003120: 00050493 		mv  s1,a0
  0x100003124: 00058993 		mv  s3,a1
  0x100003128: 00060913 		mv  s2,a2
  0x10000312c: 00000a13 		li  s4,0
  0x100003130: 02040a63 		beqz  s0,100003164 <dfs+0x80>

82 Basic Block: (0x100003134, 0x100003158)
  0x100003134: 408007bb 		negw  a5,s0
  0x100003138: 00f477b3 		and  a5,s0,a5
  0x10000313c: 0007851b 		sext.w  a0,a5
  0x100003140: 013565b3 		or  a1,a0,s3
  0x100003144: 00a96633 		or  a2,s2,a0
  0x100003148: 0015959b 		slliw  a1,a1,0x1
  0x10000314c: 0016561b 		srliw  a2,a2,0x1
  0x100003150: 00956533 		or  a0,a0,s1
  0x100003154: 40f4043b 		subw  s0,s0,a5
  0x100003158: f8dff0ef 		jal  1000030e4 <dfs>

83 Basic Block: (0x100003164, 0x100003184)
  0x100003164: 02013403 		ld  s0,32(sp)
  0x100003168: 01813483 		ld  s1,24(sp)
  0x10000316c: 01013903 		ld  s2,16(sp)
  0x100003170: 00813983 		ld  s3,8(sp)
  0x100003174: 02813083 		ld  ra,40(sp)
  0x100003178: 000a0513 		mv  a0,s4
  0x10000317c: 00013a03 		ld  s4,0(sp)
  0x100003180: 03010113 		addi  sp,sp,48
  0x100003184: 00008067 		ret

84 Basic Block: (0x10000315c, 0x100003160)
  0x10000315c: 01450a3b 		addw  s4,a0,s4
  0x100003160: fc041ae3 		bnez  s0,100003134 <dfs+0x50>

85 Basic Block: (0x100003174, 0x100003184)
  0x100003174: 02813083 		ld  ra,40(sp)
  0x100003178: 000a0513 		mv  a0,s4
  0x10000317c: 00013a03 		ld  s4,0(sp)
  0x100003180: 03010113 		addi  sp,sp,48
  0x100003184: 00008067 		ret

86 Basic Block: (0x100003184, 0x100003184)
  0x100003184: 00008067 		ret

87 Basic Block: (0x1000030fc, 0x1000030fc)
  0x1000030fc: 06a78c63 		beq  a5,a0,100003174 <dfs+0x90>

88 Basic Block: (0x100003158, 0x100003158)
  0x100003158: f8dff0ef 		jal  1000030e4 <dfs>

89 Basic Block: (0x100003130, 0x100003130)
  0x100003130: 02040a63 		beqz  s0,100003164 <dfs+0x80>

90 Basic Block: (0x100003160, 0x100003160)
  0x100003160: fc041ae3 		bnez  s0,100003134 <dfs+0x50>

91 Basic Block: (0x1000031f4, 0x1000031f8)
  0x1000031f4: 009504bb 		addw  s1,a0,s1
  0x1000031f8: fe0410e3 		bnez  s0,1000031d8 <bench_queen_run+0x24>

92 Basic Block: (0x1000031d8, 0x1000031f0)
  0x1000031d8: 408007bb 		negw  a5,s0
  0x1000031dc: 00f477b3 		and  a5,s0,a5
  0x1000031e0: 0017959b 		slliw  a1,a5,0x1
  0x1000031e4: 0017d61b 		srliw  a2,a5,0x1
  0x1000031e8: 0007851b 		sext.w  a0,a5
  0x1000031ec: 40f4043b 		subw  s0,s0,a5
  0x1000031f0: ef5ff0ef 		jal  1000030e4 <dfs>

93 Basic Block: (0x1000031fc, 0x100003214)
  0x1000031fc: 01813083 		ld  ra,24(sp)
  0x100003200: 01013403 		ld  s0,16(sp)
  0x100003204: 000fd797 		auipc  a5,0xfd
  0x100003208: ee97ac23 		sw  s1,-264(a5) # 1001000fc <ans>
  0x10000320c: 00813483 		ld  s1,8(sp)
  0x100003210: 02010113 		addi  sp,sp,32
  0x100003214: 00008067 		ret

94 Basic Block: (0x100003218, 0x100003234)
  0x100003218: 000fd797 		auipc  a5,0xfd
  0x10000321c: ef87b783 		ld  a5,-264(a5) # 100100110 <setting>
  0x100003220: 0187a503 		lw  a0,24(a5)
  0x100003224: 000fd797 		auipc  a5,0xfd
  0x100003228: ed87a783 		lw  a5,-296(a5) # 1001000fc <ans>
  0x10000322c: 40f50533 		sub  a0,a0,a5
  0x100003230: 00153513 		seqz  a0,a0
  0x100003234: 00008067 		ret

95 Basic Block: (0x100002ae0, 0x100002b14)
  0x100002ae0: 000fd797 		auipc  a5,0xfd
  0x100002ae4: 6307b783 		ld  a5,1584(a5) # 100100110 <setting>
  0x100002ae8: 0007a783 		lw  a5,0(a5)
  0x100002aec: fd010113 		addi  sp,sp,-48
  0x100002af0: 02113423 		sd  ra,40(sp)
  0x100002af4: 00913c23 		sd  s1,24(sp)
  0x100002af8: 01413023 		sd  s4,0(sp)
  0x100002afc: 000fd497 		auipc  s1,0xfd
  0x100002b00: 5fc48493 		addi  s1,s1,1532 # 1001000f8 <ARR_SIZE>
  0x100002b04: 00004537 		lui  a0,0x4
  0x100002b08: 00f4a023 		sw  a5,0(s1)
  0x100002b0c: 000fd797 		auipc  a5,0xfd
  0x100002b10: 5c07aa23 		sw  zero,1492(a5) # 1001000e0 <SP>
  0x100002b14: 724000ef 		jal  100003238 <bench_alloc>

96 Basic Block: (0x100002b18, 0x100002b28)
  0x100002b18: 00050793 		mv  a5,a0
  0x100002b1c: 40000513 		li  a0,1024
  0x100002b20: 000fd717 		auipc  a4,0xfd
  0x100002b24: 5cf73823 		sd  a5,1488(a4) # 1001000f0 <PROGRAM>
  0x100002b28: 710000ef 		jal  100003238 <bench_alloc>

97 Basic Block: (0x100002b2c, 0x100002b3c)
  0x100002b2c: 00050793 		mv  a5,a0
  0x100002b30: 00002537 		lui  a0,0x2
  0x100002b34: 000fd717 		auipc  a4,0xfd
  0x100002b38: 5af73a23 		sd  a5,1460(a4) # 1001000e8 <STACK>
  0x100002b3c: 6fc000ef 		jal  100003238 <bench_alloc>

98 Basic Block: (0x100002b40, 0x100002b68)
  0x100002b40: 0004a783 		lw  a5,0(s1)
  0x100002b44: 000fd717 		auipc  a4,0xfd
  0x100002b48: 58a73223 		sd  a0,1412(a4) # 1001000c8 <data>
  0x100002b4c: 000fda17 		auipc  s4,0xfd
  0x100002b50: 584a0a13 		addi  s4,s4,1412 # 1001000d0 <input>
  0x100002b54: 0017851b 		addiw  a0,a5,1
  0x100002b58: 0003d797 		auipc  a5,0x3d
  0x100002b5c: 54878793 		addi  a5,a5,1352 # 1000400a0 <b2+0xa0>
  0x100002b60: 000fd717 		auipc  a4,0xfd
  0x100002b64: 56f73c23 		sd  a5,1400(a4) # 1001000d8 <code>
  0x100002b68: 6d0000ef 		jal  100003238 <bench_alloc>

99 Basic Block: (0x100002b6c, 0x100002b78)
  0x100002b6c: 00050793 		mv  a5,a0
  0x100002b70: 00001537 		lui  a0,0x1
  0x100002b74: 00fa3023 		sd  a5,0(s4)
  0x100002b78: 6c0000ef 		jal  100003238 <bench_alloc>

100 Basic Block: (0x100002b7c, 0x100002b94)
  0x100002b7c: 00050793 		mv  a5,a0
  0x100002b80: 00100513 		li  a0,1
  0x100002b84: 000fd717 		auipc  a4,0xfd
  0x100002b88: 52f73e23 		sd  a5,1340(a4) # 1001000c0 <output>
  0x100002b8c: 000fd797 		auipc  a5,0xfd
  0x100002b90: 5207a623 		sw  zero,1324(a5) # 1001000b8 <noutput>
  0x100002b94: 744000ef 		jal  1000032d8 <bench_srand>

101 Basic Block: (0x100002b98, 0x100002b9c)
  0x100002b98: 0004a783 		lw  a5,0(s1)
  0x100002b9c: 06f05063 		blez  a5,100002bfc <bench_bf_prepare+0x11c>

102 Basic Block: (0x100002ba0, 0x100002bbc)
  0x100002ba0: 02813023 		sd  s0,32(sp)
  0x100002ba4: 01213823 		sd  s2,16(sp)
  0x100002ba8: 01313423 		sd  s3,8(sp)
  0x100002bac: 00000413 		li  s0,0
  0x100002bb0: 0003d997 		auipc  s3,0x3d
  0x100002bb4: 5a898993 		addi  s3,s3,1448 # 100040158 <b2+0x158>
  0x100002bb8: 03e00913 		li  s2,62
  0x100002bbc: 730000ef 		jal  1000032ec <bench_rand>

103 Basic Block: (0x100002bc0, 0x100002bec)
  0x100002bc0: 0325753b 		remuw  a0,a0,s2
  0x100002bc4: 000a3783 		ld  a5,0(s4)
  0x100002bc8: 0004a683 		lw  a3,0(s1)
  0x100002bcc: 008787b3 		add  a5,a5,s0
  0x100002bd0: 00140413 		addi  s0,s0,1
  0x100002bd4: 0004071b 		sext.w  a4,s0
  0x100002bd8: 02051513 		slli  a0,a0,0x20
  0x100002bdc: 02055513 		srli  a0,a0,0x20
  0x100002be0: 00a98533 		add  a0,s3,a0
  0x100002be4: 00054603 		lbu  a2,0(a0) # 1000 <i+0xfe0>
  0x100002be8: 00c78023 		sb  a2,0(a5)
  0x100002bec: fcd748e3 		blt  a4,a3,100002bbc <bench_bf_prepare+0xdc>

104 Basic Block: (0x100002bbc, 0x100002bbc)
  0x100002bbc: 730000ef 		jal  1000032ec <bench_rand>

105 Basic Block: (0x100002bf0, 0x100002c0c)
  0x100002bf0: 02013403 		ld  s0,32(sp)
  0x100002bf4: 01013903 		ld  s2,16(sp)
  0x100002bf8: 00813983 		ld  s3,8(sp)
  0x100002bfc: 02813083 		ld  ra,40(sp)
  0x100002c00: 01813483 		ld  s1,24(sp)
  0x100002c04: 00013a03 		ld  s4,0(sp)
  0x100002c08: 03010113 		addi  sp,sp,48
  0x100002c0c: 00008067 		ret

106 Basic Block: (0x100002c10, 0x100002c40)
  0x100002c10: 000fdf97 		auipc  t6,0xfd
  0x100002c14: 4c8f8f93 		addi  t6,t6,1224 # 1001000d8 <code>
  0x100002c18: 000fb683 		ld  a3,0(t6)
  0x100002c1c: fb010113 		addi  sp,sp,-80
  0x100002c20: 01713823 		sd  s7,16(sp)
  0x100002c24: 01813423 		sd  s8,8(sp)
  0x100002c28: 0006c783 		lbu  a5,0(a3)
  0x100002c2c: 000fdb97 		auipc  s7,0xfd
  0x100002c30: 4b4b8b93 		addi  s7,s7,1204 # 1001000e0 <SP>
  0x100002c34: 000bac03 		lw  s8,0(s7)
  0x100002c38: 000fd617 		auipc  a2,0xfd
  0x100002c3c: 4b863603 		ld  a2,1208(a2) # 1001000f0 <PROGRAM>
  0x100002c40: 42078063 		beqz  a5,100003060 <bench_bf_run+0x450>

107 Basic Block: (0x100002c44, 0x100002cb8)
  0x100002c44: 04813423 		sd  s0,72(sp)
  0x100002c48: 04913023 		sd  s1,64(sp)
  0x100002c4c: 03213c23 		sd  s2,56(sp)
  0x100002c50: 03313823 		sd  s3,48(sp)
  0x100002c54: 03413423 		sd  s4,40(sp)
  0x100002c58: 03513023 		sd  s5,32(sp)
  0x100002c5c: 01613c23 		sd  s6,24(sp)
  0x100002c60: 000fde97 		auipc  t4,0xfd
  0x100002c64: 488ebe83 		ld  t4,1160(t4) # 1001000e8 <STACK>
  0x100002c68: 00168693 		addi  a3,a3,1
  0x100002c6c: 000c0593 		mv  a1,s8
  0x100002c70: 00000313 		li  t1,0
  0x100002c74: 00000e13 		li  t3,0
  0x100002c78: 00000713 		li  a4,0
  0x100002c7c: 03200813 		li  a6,50
  0x100002c80: 0003e517 		auipc  a0,0x3e
  0x100002c84: 96050513 		addi  a0,a0,-1696 # 1000405e0 <r+0x100>
  0x100002c88: 00001f37 		lui  t5,0x1
  0x100002c8c: 00800b13 		li  s6,8
  0x100002c90: 00100a93 		li  s5,1
  0x100002c94: 00700a13 		li  s4,7
  0x100002c98: 20000993 		li  s3,512
  0x100002c9c: 00600913 		li  s2,6
  0x100002ca0: 00500493 		li  s1,5
  0x100002ca4: 00400413 		li  s0,4
  0x100002ca8: 00300393 		li  t2,3
  0x100002cac: 00200293 		li  t0,2
  0x100002cb0: fd57879b 		addiw  a5,a5,-43
  0x100002cb4: 0ff7f793 		zext.b  a5,a5
  0x100002cb8: 00f86c63 		bltu  a6,a5,100002cd0 <bench_bf_run+0xc0>

108 Basic Block: (0x100002cbc, 0x100002ccc)
  0x100002cbc: 00279793 		slli  a5,a5,0x2
  0x100002cc0: 00a787b3 		add  a5,a5,a0
  0x100002cc4: 0007a783 		lw  a5,0(a5)
  0x100002cc8: 00a787b3 		add  a5,a5,a0
  0x100002ccc: 00078067 		jr  a5

109 Basic Block: (0x100002ddc, 0x100002df4)
  0x100002ddc: 00271793 		slli  a5,a4,0x2
  0x100002de0: 0017071b 		addiw  a4,a4,1
  0x100002de4: 00f607b3 		add  a5,a2,a5
  0x100002de8: 03071713 		slli  a4,a4,0x30
  0x100002dec: 01579023 		sh  s5,0(a5)
  0x100002df0: 03075713 		srli  a4,a4,0x30
  0x100002df4: f39ff06f 		j  100002d2c <bench_bf_run+0x11c>

110 Basic Block: (0x100002d2c, 0x100002d34)
  0x100002d2c: 0006c783 		lbu  a5,0(a3)
  0x100002d30: 00068893 		mv  a7,a3
  0x100002d34: 2a078863 		beqz  a5,100002fe4 <bench_bf_run+0x3d4>

111 Basic Block: (0x100002d38, 0x100002d3c)
  0x100002d38: 00168693 		addi  a3,a3,1
  0x100002d3c: fbe712e3 		bne  a4,t5,100002ce0 <bench_bf_run+0xd0>

112 Basic Block: (0x100002ce0, 0x100002ce4)
  0x100002ce0: 00100313 		li  t1,1
  0x100002ce4: fcdff06f 		j  100002cb0 <bench_bf_run+0xa0>

113 Basic Block: (0x100002cb0, 0x100002cb8)
  0x100002cb0: fd57879b 		addiw  a5,a5,-43
  0x100002cb4: 0ff7f793 		zext.b  a5,a5
  0x100002cb8: 00f86c63 		bltu  a6,a5,100002cd0 <bench_bf_run+0xc0>

114 Basic Block: (0x100002e68, 0x100002e80)
  0x100002e68: 00271793 		slli  a5,a4,0x2
  0x100002e6c: 0017071b 		addiw  a4,a4,1
  0x100002e70: 00f607b3 		add  a5,a2,a5
  0x100002e74: 03071713 		slli  a4,a4,0x30
  0x100002e78: 00779023 		sh  t2,0(a5)
  0x100002e7c: 03075713 		srli  a4,a4,0x30
  0x100002e80: eadff06f 		j  100002d2c <bench_bf_run+0x11c>

115 Basic Block: (0x100002e4c, 0x100002e64)
  0x100002e4c: 00271793 		slli  a5,a4,0x2
  0x100002e50: 0017071b 		addiw  a4,a4,1
  0x100002e54: 00f607b3 		add  a5,a2,a5
  0x100002e58: 03071713 		slli  a4,a4,0x30
  0x100002e5c: 01279023 		sh  s2,0(a5)
  0x100002e60: 03075713 		srli  a4,a4,0x30
  0x100002e64: ec9ff06f 		j  100002d2c <bench_bf_run+0x11c>

116 Basic Block: (0x100002da4, 0x100002db0)
  0x100002da4: 00271793 		slli  a5,a4,0x2
  0x100002da8: 00f607b3 		add  a5,a2,a5
  0x100002dac: 01479023 		sh  s4,0(a5)
  0x100002db0: 29358063 		beq  a1,s3,100003030 <bench_bf_run+0x420>

117 Basic Block: (0x100002db4, 0x100002dd8)
  0x100002db4: 02059893 		slli  a7,a1,0x20
  0x100002db8: 01f8d793 		srli  a5,a7,0x1f
  0x100002dbc: 00fe87b3 		add  a5,t4,a5
  0x100002dc0: 0017089b 		addiw  a7,a4,1
  0x100002dc4: 00e79023 		sh  a4,0(a5)
  0x100002dc8: 03089713 		slli  a4,a7,0x30
  0x100002dcc: 0015859b 		addiw  a1,a1,1
  0x100002dd0: 03075713 		srli  a4,a4,0x30
  0x100002dd4: 00100e13 		li  t3,1
  0x100002dd8: f55ff06f 		j  100002d2c <bench_bf_run+0x11c>

118 Basic Block: (0x100002ce8, 0x100002ce8)
  0x100002ce8: 36058063 		beqz  a1,100003048 <bench_bf_run+0x438>

119 Basic Block: (0x100002cec, 0x100002d34)
  0x100002cec: fff5859b 		addiw  a1,a1,-1
  0x100002cf0: 02059893 		slli  a7,a1,0x20
  0x100002cf4: 01f8d793 		srli  a5,a7,0x1f
  0x100002cf8: 00fe87b3 		add  a5,t4,a5
  0x100002cfc: 0007d303 		lhu  t1,0(a5)
  0x100002d00: 00271793 		slli  a5,a4,0x2
  0x100002d04: 00f607b3 		add  a5,a2,a5
  0x100002d08: 00231893 		slli  a7,t1,0x2
  0x100002d0c: 00679123 		sh  t1,2(a5)
  0x100002d10: 01679023 		sh  s6,0(a5)
  0x100002d14: 011607b3 		add  a5,a2,a7
  0x100002d18: 0017089b 		addiw  a7,a4,1
  0x100002d1c: 00e79123 		sh  a4,2(a5)
  0x100002d20: 03089713 		slli  a4,a7,0x30
  0x100002d24: 03075713 		srli  a4,a4,0x30
  0x100002d28: 00100e13 		li  t3,1
  0x100002d2c: 0006c783 		lbu  a5,0(a3)
  0x100002d30: 00068893 		mv  a7,a3
  0x100002d34: 2a078863 		beqz  a5,100002fe4 <bench_bf_run+0x3d4>

120 Basic Block: (0x100002e30, 0x100002e48)
  0x100002e30: 00271793 		slli  a5,a4,0x2
  0x100002e34: 0017071b 		addiw  a4,a4,1
  0x100002e38: 00f607b3 		add  a5,a2,a5
  0x100002e3c: 03071713 		slli  a4,a4,0x30
  0x100002e40: 00879023 		sh  s0,0(a5)
  0x100002e44: 03075713 		srli  a4,a4,0x30
  0x100002e48: ee5ff06f 		j  100002d2c <bench_bf_run+0x11c>

121 Basic Block: (0x100002df8, 0x100002e10)
  0x100002df8: 00271793 		slli  a5,a4,0x2
  0x100002dfc: 0017071b 		addiw  a4,a4,1
  0x100002e00: 00f607b3 		add  a5,a2,a5
  0x100002e04: 03071713 		slli  a4,a4,0x30
  0x100002e08: 00579023 		sh  t0,0(a5)
  0x100002e0c: 03075713 		srli  a4,a4,0x30
  0x100002e10: f1dff06f 		j  100002d2c <bench_bf_run+0x11c>

122 Basic Block: (0x100002e14, 0x100002e2c)
  0x100002e14: 00271793 		slli  a5,a4,0x2
  0x100002e18: 0017071b 		addiw  a4,a4,1
  0x100002e1c: 00f607b3 		add  a5,a2,a5
  0x100002e20: 03071713 		slli  a4,a4,0x30
  0x100002e24: 00979023 		sh  s1,0(a5)
  0x100002e28: 03075713 		srli  a4,a4,0x30
  0x100002e2c: f01ff06f 		j  100002d2c <bench_bf_run+0x11c>

123 Basic Block: (0x100002fe4, 0x100002fe8)
  0x100002fe4: 00dfb023 		sd  a3,0(t6)
  0x100002fe8: 040e0063 		beqz  t3,100003028 <bench_bf_run+0x418>

124 Basic Block: (0x100002fec, 0x100002ff0)
  0x100002fec: 00bba023 		sw  a1,0(s7)
  0x100002ff0: d4059ee3 		bnez  a1,100002d4c <bench_bf_run+0x13c>

125 Basic Block: (0x100002ff4, 0x100002ff8)
  0x100002ff4: 000017b7 		lui  a5,0x1
  0x100002ff8: d4f70ae3 		beq  a4,a5,100002d4c <bench_bf_run+0x13c>

126 Basic Block: (0x100002ffc, 0x100003024)
  0x100002ffc: 00271713 		slli  a4,a4,0x2
  0x100003000: 00e60733 		add  a4,a2,a4
  0x100003004: 04813403 		ld  s0,72(sp)
  0x100003008: 04013483 		ld  s1,64(sp)
  0x10000300c: 03813903 		ld  s2,56(sp)
  0x100003010: 03013983 		ld  s3,48(sp)
  0x100003014: 02813a03 		ld  s4,40(sp)
  0x100003018: 02013a83 		ld  s5,32(sp)
  0x10000301c: 01813b03 		ld  s6,24(sp)
  0x100003020: 00071023 		sh  zero,0(a4)
  0x100003024: d45ff06f 		j  100002d68 <bench_bf_run+0x158>

127 Basic Block: (0x100002d68, 0x100002d88)
  0x100002d68: 00065783 		lhu  a5,0(a2)
  0x100002d6c: 00060693 		mv  a3,a2
  0x100002d70: 00000713 		li  a4,0
  0x100002d74: 00000513 		li  a0,0
  0x100002d78: 00800813 		li  a6,8
  0x100002d7c: 0003e597 		auipc  a1,0x3e
  0x100002d80: 93058593 		addi  a1,a1,-1744 # 1000406ac <r+0x1cc>
  0x100002d84: 000018b7 		lui  a7,0x1
  0x100002d88: 18078663 		beqz  a5,100002f14 <bench_bf_run+0x304>

128 Basic Block: (0x100002d8c, 0x100002d8c)
  0x100002d8c: 18f86463 		bltu  a6,a5,100002f14 <bench_bf_run+0x304>

129 Basic Block: (0x100002d90, 0x100002da0)
  0x100002d90: 00279793 		slli  a5,a5,0x2
  0x100002d94: 00b787b3 		add  a5,a5,a1
  0x100002d98: 0007a783 		lw  a5,0(a5)
  0x100002d9c: 00b787b3 		add  a5,a5,a1
  0x100002da0: 00078067 		jr  a5

130 Basic Block: (0x100002fdc, 0x100002fe0)
  0x100002fdc: 0015051b 		addiw  a0,a0,1
  0x100002fe0: fd1ff06f 		j  100002fb0 <bench_bf_run+0x3a0>

131 Basic Block: (0x100002fb0, 0x100002fc4)
  0x100002fb0: 0017071b 		addiw  a4,a4,1
  0x100002fb4: 02071793 		slli  a5,a4,0x20
  0x100002fb8: 01e7d693 		srli  a3,a5,0x1e
  0x100002fbc: 00d606b3 		add  a3,a2,a3
  0x100002fc0: 0006d783 		lhu  a5,0(a3)
  0x100002fc4: f40788e3 		beqz  a5,100002f14 <bench_bf_run+0x304>

132 Basic Block: (0x100002fc8, 0x100002fc8)
  0x100002fc8: dd1562e3 		bltu  a0,a7,100002d8c <bench_bf_run+0x17c>

133 Basic Block: (0x100002f88, 0x100002fa8)
  0x100002f88: 02051793 		slli  a5,a0,0x20
  0x100002f8c: 01f7d693 		srli  a3,a5,0x1f
  0x100002f90: 000fd797 		auipc  a5,0xfd
  0x100002f94: 1387b783 		ld  a5,312(a5) # 1001000c8 <data>
  0x100002f98: 00d787b3 		add  a5,a5,a3
  0x100002f9c: 0007d683 		lhu  a3,0(a5)
  0x100002fa0: 0016869b 		addiw  a3,a3,1
  0x100002fa4: 00d79023 		sh  a3,0(a5)
  0x100002fa8: f55ff06f 		j  100002efc <bench_bf_run+0x2ec>

134 Basic Block: (0x100002efc, 0x100002f10)
  0x100002efc: 0017071b 		addiw  a4,a4,1
  0x100002f00: 02071793 		slli  a5,a4,0x20
  0x100002f04: 01e7d693 		srli  a3,a5,0x1e
  0x100002f08: 00d606b3 		add  a3,a2,a3
  0x100002f0c: 0006d783 		lhu  a5,0(a3)
  0x100002f10: e6079ee3 		bnez  a5,100002d8c <bench_bf_run+0x17c>

135 Basic Block: (0x100002ecc, 0x100002f10)
  0x100002ecc: 000fd317 		auipc  t1,0xfd
  0x100002ed0: 20430313 		addi  t1,t1,516 # 1001000d0 <input>
  0x100002ed4: 00033783 		ld  a5,0(t1)
  0x100002ed8: 02051693 		slli  a3,a0,0x20
  0x100002edc: 01f6de93 		srli  t4,a3,0x1f
  0x100002ee0: 0007ce03 		lbu  t3,0(a5)
  0x100002ee4: 000fd697 		auipc  a3,0xfd
  0x100002ee8: 1e46b683 		ld  a3,484(a3) # 1001000c8 <data>
  0x100002eec: 00178793 		addi  a5,a5,1
  0x100002ef0: 01d686b3 		add  a3,a3,t4
  0x100002ef4: 00f33023 		sd  a5,0(t1)
  0x100002ef8: 01c69023 		sh  t3,0(a3)
  0x100002efc: 0017071b 		addiw  a4,a4,1
  0x100002f00: 02071793 		slli  a5,a4,0x20
  0x100002f04: 01e7d693 		srli  a3,a5,0x1e
  0x100002f08: 00d606b3 		add  a3,a2,a3
  0x100002f0c: 0006d783 		lhu  a5,0(a3)
  0x100002f10: e6079ee3 		bnez  a5,100002d8c <bench_bf_run+0x17c>

136 Basic Block: (0x100002ea8, 0x100002ec0)
  0x100002ea8: 02051793 		slli  a5,a0,0x20
  0x100002eac: 01f7d313 		srli  t1,a5,0x1f
  0x100002eb0: 000fd797 		auipc  a5,0xfd
  0x100002eb4: 2187b783 		ld  a5,536(a5) # 1001000c8 <data>
  0x100002eb8: 006787b3 		add  a5,a5,t1
  0x100002ebc: 0007d783 		lhu  a5,0(a5)
  0x100002ec0: 02079e63 		bnez  a5,100002efc <bench_bf_run+0x2ec>

137 Basic Block: (0x100002e84, 0x100002e9c)
  0x100002e84: 02051793 		slli  a5,a0,0x20
  0x100002e88: 01f7d313 		srli  t1,a5,0x1f
  0x100002e8c: 000fd797 		auipc  a5,0xfd
  0x100002e90: 23c7b783 		ld  a5,572(a5) # 1001000c8 <data>
  0x100002e94: 006787b3 		add  a5,a5,t1
  0x100002e98: 0007d783 		lhu  a5,0(a5)
  0x100002e9c: 06078063 		beqz  a5,100002efc <bench_bf_run+0x2ec>

138 Basic Block: (0x100002ea0, 0x100002ea4)
  0x100002ea0: 0026d703 		lhu  a4,2(a3)
  0x100002ea4: 0580006f 		j  100002efc <bench_bf_run+0x2ec>

139 Basic Block: (0x100002f64, 0x100002f84)
  0x100002f64: 02051793 		slli  a5,a0,0x20
  0x100002f68: 01f7d693 		srli  a3,a5,0x1f
  0x100002f6c: 000fd797 		auipc  a5,0xfd
  0x100002f70: 15c7b783 		ld  a5,348(a5) # 1001000c8 <data>
  0x100002f74: 00d787b3 		add  a5,a5,a3
  0x100002f78: 0007d683 		lhu  a3,0(a5)
  0x100002f7c: fff6869b 		addiw  a3,a3,-1
  0x100002f80: 00d79023 		sh  a3,0(a5)
  0x100002f84: f79ff06f 		j  100002efc <bench_bf_run+0x2ec>

140 Basic Block: (0x100002fac, 0x100002fc4)
  0x100002fac: fff5051b 		addiw  a0,a0,-1
  0x100002fb0: 0017071b 		addiw  a4,a4,1
  0x100002fb4: 02071793 		slli  a5,a4,0x20
  0x100002fb8: 01e7d693 		srli  a3,a5,0x1e
  0x100002fbc: 00d606b3 		add  a3,a2,a3
  0x100002fc0: 0006d783 		lhu  a5,0(a3)
  0x100002fc4: f40788e3 		beqz  a5,100002f14 <bench_bf_run+0x304>

141 Basic Block: (0x100002ec4, 0x100002ec8)
  0x100002ec4: 0026d703 		lhu  a4,2(a3)
  0x100002ec8: 0340006f 		j  100002efc <bench_bf_run+0x2ec>

142 Basic Block: (0x100002fc4, 0x100002fc4)
  0x100002fc4: f40788e3 		beqz  a5,100002f14 <bench_bf_run+0x304>

143 Basic Block: (0x100002f84, 0x100002f84)
  0x100002f84: f79ff06f 		j  100002efc <bench_bf_run+0x2ec>

144 Basic Block: (0x100002fa8, 0x100002fa8)
  0x100002fa8: f55ff06f 		j  100002efc <bench_bf_run+0x2ec>

145 Basic Block: (0x100002da0, 0x100002da0)
  0x100002da0: 00078067 		jr  a5

146 Basic Block: (0x100002f10, 0x100002f10)
  0x100002f10: e6079ee3 		bnez  a5,100002d8c <bench_bf_run+0x17c>

147 Basic Block: (0x100002e9c, 0x100002e9c)
  0x100002e9c: 06078063 		beqz  a5,100002efc <bench_bf_run+0x2ec>

148 Basic Block: (0x100002ea4, 0x100002ea4)
  0x100002ea4: 0580006f 		j  100002efc <bench_bf_run+0x2ec>

149 Basic Block: (0x100002fe0, 0x100002fe0)
  0x100002fe0: fd1ff06f 		j  100002fb0 <bench_bf_run+0x3a0>

150 Basic Block: (0x100002ec0, 0x100002ec0)
  0x100002ec0: 02079e63 		bnez  a5,100002efc <bench_bf_run+0x2ec>

151 Basic Block: (0x100002ec8, 0x100002ec8)
  0x100002ec8: 0340006f 		j  100002efc <bench_bf_run+0x2ec>

152 Basic Block: (0x100002f24, 0x100002f60)
  0x100002f24: 02051793 		slli  a5,a0,0x20
  0x100002f28: 01f7de13 		srli  t3,a5,0x1f
  0x100002f2c: 000fd697 		auipc  a3,0xfd
  0x100002f30: 18c68693 		addi  a3,a3,396 # 1001000b8 <noutput>
  0x100002f34: 000fd797 		auipc  a5,0xfd
  0x100002f38: 1947b783 		ld  a5,404(a5) # 1001000c8 <data>
  0x100002f3c: 0006a303 		lw  t1,0(a3)
  0x100002f40: 01c787b3 		add  a5,a5,t3
  0x100002f44: 0007de03 		lhu  t3,0(a5)
  0x100002f48: 000fd797 		auipc  a5,0xfd
  0x100002f4c: 1787b783 		ld  a5,376(a5) # 1001000c0 <output>
  0x100002f50: 00130e9b 		addiw  t4,t1,1
  0x100002f54: 006787b3 		add  a5,a5,t1
  0x100002f58: 01d6a023 		sw  t4,0(a3)
  0x100002f5c: 01c78023 		sb  t3,0(a5)
  0x100002f60: f9dff06f 		j  100002efc <bench_bf_run+0x2ec>

153 Basic Block: (0x100002f14, 0x100002f20)
  0x100002f14: 01013b83 		ld  s7,16(sp)
  0x100002f18: 00813c03 		ld  s8,8(sp)
  0x100002f1c: 05010113 		addi  sp,sp,80
  0x100002f20: 00008067 		ret

154 Basic Block: (0x100003070, 0x100003094)
  0x100003070: ff010113 		addi  sp,sp,-16
  0x100003074: 00813023 		sd  s0,0(sp)
  0x100003078: 000fd417 		auipc  s0,0xfd
  0x10000307c: 04040413 		addi  s0,s0,64 # 1001000b8 <noutput>
  0x100003080: 00042583 		lw  a1,0(s0)
  0x100003084: 000fd517 		auipc  a0,0xfd
  0x100003088: 03c53503 		ld  a0,60(a0) # 1001000c0 <output>
  0x10000308c: 00113423 		sd  ra,8(sp)
  0x100003090: 00b505b3 		add  a1,a0,a1
  0x100003094: 28c000ef 		jal  100003320 <checksum>

155 Basic Block: (0x100003098, 0x1000030a4)
  0x100003098: 00042683 		lw  a3,0(s0)
  0x10000309c: 000fd717 		auipc  a4,0xfd
  0x1000030a0: 05c72703 		lw  a4,92(a4) # 1001000f8 <ARR_SIZE>
  0x1000030a4: 00e68c63 		beq  a3,a4,1000030bc <bench_bf_validate+0x4c>

156 Basic Block: (0x1000030bc, 0x1000030e0)
  0x1000030bc: 000fd717 		auipc  a4,0xfd
  0x1000030c0: 05473703 		ld  a4,84(a4) # 100100110 <setting>
  0x1000030c4: 0005079b 		sext.w  a5,a0
  0x1000030c8: 01872503 		lw  a0,24(a4)
  0x1000030cc: 00813083 		ld  ra,8(sp)
  0x1000030d0: 00013403 		ld  s0,0(sp)
  0x1000030d4: 40f50533 		sub  a0,a0,a5
  0x1000030d8: 00153513 		seqz  a0,a0
  0x1000030dc: 01010113 		addi  sp,sp,16
  0x1000030e0: 00008067 		ret

157 Basic Block: (0x10000090c, 0x100000938)
  0x10000090c: 00100797 		auipc  a5,0x100
  0x100000910: 8047b783 		ld  a5,-2044(a5) # 100100110 <setting>
  0x100000914: 0007a783 		lw  a5,0(a5)
  0x100000918: ff010113 		addi  sp,sp,-16
  0x10000091c: 00813023 		sd  s0,0(sp)
  0x100000920: 02f7843b 		mulw  s0,a5,a5
  0x100000924: 00113423 		sd  ra,8(sp)
  0x100000928: 000ff717 		auipc  a4,0xff
  0x10000092c: 70f72823 		sw  a5,1808(a4) # 100100038 <M>
  0x100000930: 0024141b 		slliw  s0,s0,0x2
  0x100000934: 00040513 		mv  a0,s0
  0x100000938: 101020ef 		jal  100003238 <bench_alloc>

158 Basic Block: (0x10000093c, 0x10000094c)
  0x10000093c: 00050793 		mv  a5,a0
  0x100000940: 00040513 		mv  a0,s0
  0x100000944: 000ff717 		auipc  a4,0xff
  0x100000948: 6ef73623 		sd  a5,1772(a4) # 100100030 <A>
  0x10000094c: 0ed020ef 		jal  100003238 <bench_alloc>

159 Basic Block: (0x100000950, 0x100000960)
  0x100000950: 00050793 		mv  a5,a0
  0x100000954: 00040513 		mv  a0,s0
  0x100000958: 000ff717 		auipc  a4,0xff
  0x10000095c: 6cf73423 		sd  a5,1736(a4) # 100100020 <T>
  0x100000960: 0d9020ef 		jal  100003238 <bench_alloc>

160 Basic Block: (0x100000964, 0x100000974)
  0x100000964: 00050793 		mv  a5,a0
  0x100000968: 00040513 		mv  a0,s0
  0x10000096c: 000ff717 		auipc  a4,0xff
  0x100000970: 6af73e23 		sd  a5,1724(a4) # 100100028 <ans>
  0x100000974: 0c5020ef 		jal  100003238 <bench_alloc>

161 Basic Block: (0x100000978, 0x10000098c)
  0x100000978: 00813083 		ld  ra,8(sp)
  0x10000097c: 00013403 		ld  s0,0(sp)
  0x100000980: 000ff797 		auipc  a5,0xff
  0x100000984: 68a7bc23 		sd  a0,1688(a5) # 100100018 <tmp>
  0x100000988: 01010113 		addi  sp,sp,16
  0x10000098c: 00008067 		ret

162 Basic Block: (0x100000990, 0x1000009cc)
  0x100000990: fc010113 		addi  sp,sp,-64
  0x100000994: 000ff317 		auipc  t1,0xff
  0x100000998: 6a432303 		lw  t1,1700(t1) # 100100038 <M>
  0x10000099c: 02813c23 		sd  s0,56(sp)
  0x1000009a0: 02913823 		sd  s1,48(sp)
  0x1000009a4: 03213423 		sd  s2,40(sp)
  0x1000009a8: 03313023 		sd  s3,32(sp)
  0x1000009ac: 01413c23 		sd  s4,24(sp)
  0x1000009b0: 01513823 		sd  s5,16(sp)
  0x1000009b4: 01613423 		sd  s6,8(sp)
  0x1000009b8: 000ffe17 		auipc  t3,0xff
  0x1000009bc: 668e3e03 		ld  t3,1640(t3) # 100100020 <T>
  0x1000009c0: 000ffe97 		auipc  t4,0xff
  0x1000009c4: 668ebe83 		ld  t4,1640(t4) # 100100028 <ans>
  0x1000009c8: 00231593 		slli  a1,t1,0x2
  0x1000009cc: 06605c63 		blez  t1,100000a44 <bench_fib_run+0xb4>

163 Basic Block: (0x1000009d0, 0x100000a1c)
  0x1000009d0: 000ff917 		auipc  s2,0xff
  0x1000009d4: 66093903 		ld  s2,1632(s2) # 100100030 <A>
  0x1000009d8: fff3049b 		addiw  s1,t1,-1
  0x1000009dc: 00231593 		slli  a1,t1,0x2
  0x1000009e0: 00000413 		li  s0,0
  0x1000009e4: 00000393 		li  t2,0
  0x1000009e8: 00000513 		li  a0,0
  0x1000009ec: 0015051b 		addiw  a0,a0,1
  0x1000009f0: 00040713 		mv  a4,s0
  0x1000009f4: 00000793 		li  a5,0
  0x1000009f8: 0003881b 		sext.w  a6,t2
  0x1000009fc: 410786b3 		sub  a3,a5,a6
  0x100000a00: 40a782b3 		sub  t0,a5,a0
  0x100000a04: 00e90fb3 		add  t6,s2,a4
  0x100000a08: 00ee0f33 		add  t5,t3,a4
  0x100000a0c: 00ee88b3 		add  a7,t4,a4
  0x100000a10: 0016b693 		seqz  a3,a3
  0x100000a14: 0017879b 		addiw  a5,a5,1
  0x100000a18: 00100613 		li  a2,1
  0x100000a1c: 01048463 		beq  s1,a6,100000a24 <bench_fib_run+0x94>

164 Basic Block: (0x100000a20, 0x100000a34)
  0x100000a20: 0012b613 		seqz  a2,t0
  0x100000a24: 00cfa023 		sw  a2,0(t6)
  0x100000a28: 00cf2023 		sw  a2,0(t5)
  0x100000a2c: 00d8a023 		sw  a3,0(a7)
  0x100000a30: 00470713 		addi  a4,a4,4
  0x100000a34: fc6794e3 		bne  a5,t1,1000009fc <bench_fib_run+0x6c>

165 Basic Block: (0x1000009fc, 0x100000a1c)
  0x1000009fc: 410786b3 		sub  a3,a5,a6
  0x100000a00: 40a782b3 		sub  t0,a5,a0
  0x100000a04: 00e90fb3 		add  t6,s2,a4
  0x100000a08: 00ee0f33 		add  t5,t3,a4
  0x100000a0c: 00ee88b3 		add  a7,t4,a4
  0x100000a10: 0016b693 		seqz  a3,a3
  0x100000a14: 0017879b 		addiw  a5,a5,1
  0x100000a18: 00100613 		li  a2,1
  0x100000a1c: 01048463 		beq  s1,a6,100000a24 <bench_fib_run+0x94>

166 Basic Block: (0x100000a38, 0x100000a40)
  0x100000a38: 0013839b 		addiw  t2,t2,1
  0x100000a3c: 00b40433 		add  s0,s0,a1
  0x100000a40: faa316e3 		bne  t1,a0,1000009ec <bench_fib_run+0x5c>

167 Basic Block: (0x1000009ec, 0x100000a1c)
  0x1000009ec: 0015051b 		addiw  a0,a0,1
  0x1000009f0: 00040713 		mv  a4,s0
  0x1000009f4: 00000793 		li  a5,0
  0x1000009f8: 0003881b 		sext.w  a6,t2
  0x1000009fc: 410786b3 		sub  a3,a5,a6
  0x100000a00: 40a782b3 		sub  t0,a5,a0
  0x100000a04: 00e90fb3 		add  t6,s2,a4
  0x100000a08: 00ee0f33 		add  t5,t3,a4
  0x100000a0c: 00ee88b3 		add  a7,t4,a4
  0x100000a10: 0016b693 		seqz  a3,a3
  0x100000a14: 0017879b 		addiw  a5,a5,1
  0x100000a18: 00100613 		li  a2,1
  0x100000a1c: 01048463 		beq  s1,a6,100000a24 <bench_fib_run+0x94>

168 Basic Block: (0x100000a1c, 0x100000a1c)
  0x100000a1c: 01048463 		beq  s1,a6,100000a24 <bench_fib_run+0x94>

169 Basic Block: (0x100000a24, 0x100000a34)
  0x100000a24: 00cfa023 		sw  a2,0(t6)
  0x100000a28: 00cf2023 		sw  a2,0(t5)
  0x100000a2c: 00d8a023 		sw  a3,0(a7)
  0x100000a30: 00470713 		addi  a4,a4,4
  0x100000a34: fc6794e3 		bne  a5,t1,1000009fc <bench_fib_run+0x6c>

170 Basic Block: (0x100000a44, 0x100000a68)
  0x100000a44: 000ff297 		auipc  t0,0xff
  0x100000a48: 5d42b283 		ld  t0,1492(t0) # 100100018 <tmp>
  0x100000a4c: 80000f37 		lui  t5,0x80000
  0x100000a50: 00be84b3 		add  s1,t4,a1
  0x100000a54: 00b283b3 		add  t2,t0,a1
  0x100000a58: 00be0433 		add  s0,t3,a1
  0x100000a5c: 01f00f93 		li  t6,31
  0x100000a60: fd3f4f13 		xori  t5,t5,-45
  0x100000a64: 001f7793 		andi  a5,t5,1
  0x100000a68: 0e079063 		bnez  a5,100000b48 <bench_fib_run+0x1b8>

171 Basic Block: (0x100000b48, 0x100000b48)
  0x100000b48: fc6058e3 		blez  t1,100000b18 <bench_fib_run+0x188>

172 Basic Block: (0x100000b4c, 0x100000b94)
  0x100000b4c: 00028b13 		mv  s6,t0
  0x100000b50: 00048893 		mv  a7,s1
  0x100000b54: 000e8a13 		mv  s4,t4
  0x100000b58: 00000a93 		li  s5,0
  0x100000b5c: 000e0913 		mv  s2,t3
  0x100000b60: 000b0813 		mv  a6,s6
  0x100000b64: 00000993 		li  s3,0
  0x100000b68: 00082023 		sw  zero,0(a6)
  0x100000b6c: 00090613 		mv  a2,s2
  0x100000b70: 000a0713 		mv  a4,s4
  0x100000b74: 00000793 		li  a5,0
  0x100000b78: 00072503 		lw  a0,0(a4)
  0x100000b7c: 00062683 		lw  a3,0(a2)
  0x100000b80: 00470713 		addi  a4,a4,4
  0x100000b84: 00b60633 		add  a2,a2,a1
  0x100000b88: 02a686bb 		mulw  a3,a3,a0
  0x100000b8c: 00f687bb 		addw  a5,a3,a5
  0x100000b90: 00f82023 		sw  a5,0(a6)
  0x100000b94: ff1712e3 		bne  a4,a7,100000b78 <bench_fib_run+0x1e8>

173 Basic Block: (0x100000b78, 0x100000b94)
  0x100000b78: 00072503 		lw  a0,0(a4)
  0x100000b7c: 00062683 		lw  a3,0(a2)
  0x100000b80: 00470713 		addi  a4,a4,4
  0x100000b84: 00b60633 		add  a2,a2,a1
  0x100000b88: 02a686bb 		mulw  a3,a3,a0
  0x100000b8c: 00f687bb 		addw  a5,a3,a5
  0x100000b90: 00f82023 		sw  a5,0(a6)
  0x100000b94: ff1712e3 		bne  a4,a7,100000b78 <bench_fib_run+0x1e8>

174 Basic Block: (0x100000b98, 0x100000ba4)
  0x100000b98: 0019899b 		addiw  s3,s3,1
  0x100000b9c: 00480813 		addi  a6,a6,4
  0x100000ba0: 00490913 		addi  s2,s2,4
  0x100000ba4: fc6992e3 		bne  s3,t1,100000b68 <bench_fib_run+0x1d8>

175 Basic Block: (0x100000b68, 0x100000b94)
  0x100000b68: 00082023 		sw  zero,0(a6)
  0x100000b6c: 00090613 		mv  a2,s2
  0x100000b70: 000a0713 		mv  a4,s4
  0x100000b74: 00000793 		li  a5,0
  0x100000b78: 00072503 		lw  a0,0(a4)
  0x100000b7c: 00062683 		lw  a3,0(a2)
  0x100000b80: 00470713 		addi  a4,a4,4
  0x100000b84: 00b60633 		add  a2,a2,a1
  0x100000b88: 02a686bb 		mulw  a3,a3,a0
  0x100000b8c: 00f687bb 		addw  a5,a3,a5
  0x100000b90: 00f82023 		sw  a5,0(a6)
  0x100000b94: ff1712e3 		bne  a4,a7,100000b78 <bench_fib_run+0x1e8>

176 Basic Block: (0x100000b94, 0x100000b94)
  0x100000b94: ff1712e3 		bne  a4,a7,100000b78 <bench_fib_run+0x1e8>

177 Basic Block: (0x100000ba8, 0x100000bb8)
  0x100000ba8: 001a8a9b 		addiw  s5,s5,1
  0x100000bac: 00ba0a33 		add  s4,s4,a1
  0x100000bb0: 00b708b3 		add  a7,a4,a1
  0x100000bb4: 00bb0b33 		add  s6,s6,a1
  0x100000bb8: fa6a92e3 		bne  s5,t1,100000b5c <bench_fib_run+0x1cc>

178 Basic Block: (0x100000b5c, 0x100000b94)
  0x100000b5c: 000e0913 		mv  s2,t3
  0x100000b60: 000b0813 		mv  a6,s6
  0x100000b64: 00000993 		li  s3,0
  0x100000b68: 00082023 		sw  zero,0(a6)
  0x100000b6c: 00090613 		mv  a2,s2
  0x100000b70: 000a0713 		mv  a4,s4
  0x100000b74: 00000793 		li  a5,0
  0x100000b78: 00072503 		lw  a0,0(a4)
  0x100000b7c: 00062683 		lw  a3,0(a2)
  0x100000b80: 00470713 		addi  a4,a4,4
  0x100000b84: 00b60633 		add  a2,a2,a1
  0x100000b88: 02a686bb 		mulw  a3,a3,a0
  0x100000b8c: 00f687bb 		addw  a5,a3,a5
  0x100000b90: 00f82023 		sw  a5,0(a6)
  0x100000b94: ff1712e3 		bne  a4,a7,100000b78 <bench_fib_run+0x1e8>

179 Basic Block: (0x100000bbc, 0x100000be0)
  0x100000bbc: 00038613 		mv  a2,t2
  0x100000bc0: 000e8813 		mv  a6,t4
  0x100000bc4: 00000513 		li  a0,0
  0x100000bc8: 40b607b3 		sub  a5,a2,a1
  0x100000bcc: 00080713 		mv  a4,a6
  0x100000bd0: 0007a683 		lw  a3,0(a5)
  0x100000bd4: 00478793 		addi  a5,a5,4
  0x100000bd8: 00470713 		addi  a4,a4,4
  0x100000bdc: fed72e23 		sw  a3,-4(a4)
  0x100000be0: fec798e3 		bne  a5,a2,100000bd0 <bench_fib_run+0x240>

180 Basic Block: (0x100000bd0, 0x100000be0)
  0x100000bd0: 0007a683 		lw  a3,0(a5)
  0x100000bd4: 00478793 		addi  a5,a5,4
  0x100000bd8: 00470713 		addi  a4,a4,4
  0x100000bdc: fed72e23 		sw  a3,-4(a4)
  0x100000be0: fec798e3 		bne  a5,a2,100000bd0 <bench_fib_run+0x240>

181 Basic Block: (0x100000be4, 0x100000bf0)
  0x100000be4: 0015051b 		addiw  a0,a0,1
  0x100000be8: 00b80833 		add  a6,a6,a1
  0x100000bec: 00b60633 		add  a2,a2,a1
  0x100000bf0: fc651ce3 		bne  a0,t1,100000bc8 <bench_fib_run+0x238>

182 Basic Block: (0x100000bc8, 0x100000be0)
  0x100000bc8: 40b607b3 		sub  a5,a2,a1
  0x100000bcc: 00080713 		mv  a4,a6
  0x100000bd0: 0007a683 		lw  a3,0(a5)
  0x100000bd4: 00478793 		addi  a5,a5,4
  0x100000bd8: 00470713 		addi  a4,a4,4
  0x100000bdc: fed72e23 		sw  a3,-4(a4)
  0x100000be0: fec798e3 		bne  a5,a2,100000bd0 <bench_fib_run+0x240>

183 Basic Block: (0x100000be0, 0x100000be0)
  0x100000be0: fec798e3 		bne  a5,a2,100000bd0 <bench_fib_run+0x240>

184 Basic Block: (0x100000bf4, 0x100000bf4)
  0x100000bf4: e7dff06f 		j  100000a70 <bench_fib_run+0xe0>

185 Basic Block: (0x100000a70, 0x100000ab8)
  0x100000a70: 00028a93 		mv  s5,t0
  0x100000a74: 00040893 		mv  a7,s0
  0x100000a78: 000e0a13 		mv  s4,t3
  0x100000a7c: 00000b13 		li  s6,0
  0x100000a80: 000e0913 		mv  s2,t3
  0x100000a84: 000a8813 		mv  a6,s5
  0x100000a88: 00000993 		li  s3,0
  0x100000a8c: 00082023 		sw  zero,0(a6)
  0x100000a90: 00090613 		mv  a2,s2
  0x100000a94: 000a0713 		mv  a4,s4
  0x100000a98: 00000793 		li  a5,0
  0x100000a9c: 00072503 		lw  a0,0(a4)
  0x100000aa0: 00062683 		lw  a3,0(a2)
  0x100000aa4: 00470713 		addi  a4,a4,4
  0x100000aa8: 00b60633 		add  a2,a2,a1
  0x100000aac: 02a686bb 		mulw  a3,a3,a0
  0x100000ab0: 00f687bb 		addw  a5,a3,a5
  0x100000ab4: 00f82023 		sw  a5,0(a6)
  0x100000ab8: fee892e3 		bne  a7,a4,100000a9c <bench_fib_run+0x10c>

186 Basic Block: (0x100000a9c, 0x100000ab8)
  0x100000a9c: 00072503 		lw  a0,0(a4)
  0x100000aa0: 00062683 		lw  a3,0(a2)
  0x100000aa4: 00470713 		addi  a4,a4,4
  0x100000aa8: 00b60633 		add  a2,a2,a1
  0x100000aac: 02a686bb 		mulw  a3,a3,a0
  0x100000ab0: 00f687bb 		addw  a5,a3,a5
  0x100000ab4: 00f82023 		sw  a5,0(a6)
  0x100000ab8: fee892e3 		bne  a7,a4,100000a9c <bench_fib_run+0x10c>

187 Basic Block: (0x100000abc, 0x100000ac8)
  0x100000abc: 0019899b 		addiw  s3,s3,1
  0x100000ac0: 00480813 		addi  a6,a6,4
  0x100000ac4: 00490913 		addi  s2,s2,4
  0x100000ac8: fc6992e3 		bne  s3,t1,100000a8c <bench_fib_run+0xfc>

188 Basic Block: (0x100000a8c, 0x100000ab8)
  0x100000a8c: 00082023 		sw  zero,0(a6)
  0x100000a90: 00090613 		mv  a2,s2
  0x100000a94: 000a0713 		mv  a4,s4
  0x100000a98: 00000793 		li  a5,0
  0x100000a9c: 00072503 		lw  a0,0(a4)
  0x100000aa0: 00062683 		lw  a3,0(a2)
  0x100000aa4: 00470713 		addi  a4,a4,4
  0x100000aa8: 00b60633 		add  a2,a2,a1
  0x100000aac: 02a686bb 		mulw  a3,a3,a0
  0x100000ab0: 00f687bb 		addw  a5,a3,a5
  0x100000ab4: 00f82023 		sw  a5,0(a6)
  0x100000ab8: fee892e3 		bne  a7,a4,100000a9c <bench_fib_run+0x10c>

189 Basic Block: (0x100000ab8, 0x100000ab8)
  0x100000ab8: fee892e3 		bne  a7,a4,100000a9c <bench_fib_run+0x10c>

190 Basic Block: (0x100000acc, 0x100000adc)
  0x100000acc: 001b0b1b 		addiw  s6,s6,1
  0x100000ad0: 00ba0a33 		add  s4,s4,a1
  0x100000ad4: 00b888b3 		add  a7,a7,a1
  0x100000ad8: 00ba8ab3 		add  s5,s5,a1
  0x100000adc: fa6b12e3 		bne  s6,t1,100000a80 <bench_fib_run+0xf0>

191 Basic Block: (0x100000a80, 0x100000ab8)
  0x100000a80: 000e0913 		mv  s2,t3
  0x100000a84: 000a8813 		mv  a6,s5
  0x100000a88: 00000993 		li  s3,0
  0x100000a8c: 00082023 		sw  zero,0(a6)
  0x100000a90: 00090613 		mv  a2,s2
  0x100000a94: 000a0713 		mv  a4,s4
  0x100000a98: 00000793 		li  a5,0
  0x100000a9c: 00072503 		lw  a0,0(a4)
  0x100000aa0: 00062683 		lw  a3,0(a2)
  0x100000aa4: 00470713 		addi  a4,a4,4
  0x100000aa8: 00b60633 		add  a2,a2,a1
  0x100000aac: 02a686bb 		mulw  a3,a3,a0
  0x100000ab0: 00f687bb 		addw  a5,a3,a5
  0x100000ab4: 00f82023 		sw  a5,0(a6)
  0x100000ab8: fee892e3 		bne  a7,a4,100000a9c <bench_fib_run+0x10c>

192 Basic Block: (0x100000ae0, 0x100000b04)
  0x100000ae0: 00038613 		mv  a2,t2
  0x100000ae4: 000e0513 		mv  a0,t3
  0x100000ae8: 00000813 		li  a6,0
  0x100000aec: 40b607b3 		sub  a5,a2,a1
  0x100000af0: 00050713 		mv  a4,a0
  0x100000af4: 0007a683 		lw  a3,0(a5)
  0x100000af8: 00478793 		addi  a5,a5,4
  0x100000afc: 00470713 		addi  a4,a4,4
  0x100000b00: fed72e23 		sw  a3,-4(a4)
  0x100000b04: fef618e3 		bne  a2,a5,100000af4 <bench_fib_run+0x164>

193 Basic Block: (0x100000af4, 0x100000b04)
  0x100000af4: 0007a683 		lw  a3,0(a5)
  0x100000af8: 00478793 		addi  a5,a5,4
  0x100000afc: 00470713 		addi  a4,a4,4
  0x100000b00: fed72e23 		sw  a3,-4(a4)
  0x100000b04: fef618e3 		bne  a2,a5,100000af4 <bench_fib_run+0x164>

194 Basic Block: (0x100000b08, 0x100000b14)
  0x100000b08: 0018081b 		addiw  a6,a6,1
  0x100000b0c: 00b50533 		add  a0,a0,a1
  0x100000b10: 00b60633 		add  a2,a2,a1
  0x100000b14: fc681ce3 		bne  a6,t1,100000aec <bench_fib_run+0x15c>

195 Basic Block: (0x100000aec, 0x100000b04)
  0x100000aec: 40b607b3 		sub  a5,a2,a1
  0x100000af0: 00050713 		mv  a4,a0
  0x100000af4: 0007a683 		lw  a3,0(a5)
  0x100000af8: 00478793 		addi  a5,a5,4
  0x100000afc: 00470713 		addi  a4,a4,4
  0x100000b00: fed72e23 		sw  a3,-4(a4)
  0x100000b04: fef618e3 		bne  a2,a5,100000af4 <bench_fib_run+0x164>

196 Basic Block: (0x100000b18, 0x100000b20)
  0x100000b18: ffff8f9b 		addiw  t6,t6,-1
  0x100000b1c: 401f5f13 		srai  t5,t5,0x1
  0x100000b20: f40f92e3 		bnez  t6,100000a64 <bench_fib_run+0xd4>

197 Basic Block: (0x100000a64, 0x100000a68)
  0x100000a64: 001f7793 		andi  a5,t5,1
  0x100000a68: 0e079063 		bnez  a5,100000b48 <bench_fib_run+0x1b8>

198 Basic Block: (0x100000a6c, 0x100000a6c)
  0x100000a6c: 0a605663 		blez  t1,100000b18 <bench_fib_run+0x188>

199 Basic Block: (0x100000b04, 0x100000b04)
  0x100000b04: fef618e3 		bne  a2,a5,100000af4 <bench_fib_run+0x164>

200 Basic Block: (0x100000adc, 0x100000adc)
  0x100000adc: fa6b12e3 		bne  s6,t1,100000a80 <bench_fib_run+0xf0>

201 Basic Block: (0x100000ac8, 0x100000ac8)
  0x100000ac8: fc6992e3 		bne  s3,t1,100000a8c <bench_fib_run+0xfc>

202 Basic Block: (0x100000bf0, 0x100000bf0)
  0x100000bf0: fc651ce3 		bne  a0,t1,100000bc8 <bench_fib_run+0x238>

203 Basic Block: (0x100000bb8, 0x100000bb8)
  0x100000bb8: fa6a92e3 		bne  s5,t1,100000b5c <bench_fib_run+0x1cc>

204 Basic Block: (0x100000b24, 0x100000b44)
  0x100000b24: 03813403 		ld  s0,56(sp)
  0x100000b28: 03013483 		ld  s1,48(sp)
  0x100000b2c: 02813903 		ld  s2,40(sp)
  0x100000b30: 02013983 		ld  s3,32(sp)
  0x100000b34: 01813a03 		ld  s4,24(sp)
  0x100000b38: 01013a83 		ld  s5,16(sp)
  0x100000b3c: 00813b03 		ld  s6,8(sp)
  0x100000b40: 04010113 		addi  sp,sp,64
  0x100000b44: 00008067 		ret

205 Basic Block: (0x100000bf8, 0x100000c30)
  0x100000bf8: 000ff797 		auipc  a5,0xff
  0x100000bfc: 4407a783 		lw  a5,1088(a5) # 100100038 <M>
  0x100000c00: 02f787bb 		mulw  a5,a5,a5
  0x100000c04: 000ff717 		auipc  a4,0xff
  0x100000c08: 50c73703 		ld  a4,1292(a4) # 100100110 <setting>
  0x100000c0c: 01872683 		lw  a3,24(a4)
  0x100000c10: 000ff717 		auipc  a4,0xff
  0x100000c14: 41873703 		ld  a4,1048(a4) # 100100028 <ans>
  0x100000c18: fff7879b 		addiw  a5,a5,-1
  0x100000c1c: 00279793 		slli  a5,a5,0x2
  0x100000c20: 00f707b3 		add  a5,a4,a5
  0x100000c24: 0007a503 		lw  a0,0(a5)
  0x100000c28: 40d50533 		sub  a0,a0,a3
  0x100000c2c: 00153513 		seqz  a0,a0
  0x100000c30: 00008067 		ret

206 Basic Block: (0x1000016c8, 0x100001700)
  0x1000016c8: 000ff797 		auipc  a5,0xff
  0x1000016cc: a487b783 		ld  a5,-1464(a5) # 100100110 <setting>
  0x1000016d0: 0007a783 		lw  a5,0(a5)
  0x1000016d4: ff010113 		addi  sp,sp,-16
  0x1000016d8: 00813023 		sd  s0,0(sp)
  0x1000016dc: 41f7d51b 		sraiw  a0,a5,0x1f
  0x1000016e0: 01d5551b 		srliw  a0,a0,0x1d
  0x1000016e4: 00f5053b 		addw  a0,a0,a5
  0x1000016e8: 4035551b 		sraiw  a0,a0,0x3
  0x1000016ec: 00113423 		sd  ra,8(sp)
  0x1000016f0: 000ff417 		auipc  s0,0xff
  0x1000016f4: 97440413 		addi  s0,s0,-1676 # 100100064 <N>
  0x1000016f8: 0805051b 		addiw  a0,a0,128
  0x1000016fc: 00f42023 		sw  a5,0(s0)
  0x100001700: 339010ef 		jal  100003238 <bench_alloc>

207 Basic Block: (0x100001704, 0x100001720)
  0x100001704: 00042783 		lw  a5,0(s0)
  0x100001708: 000ff717 		auipc  a4,0xff
  0x10000170c: 94a73823 		sd  a0,-1712(a4) # 100100058 <primes>
  0x100001710: fe100693 		li  a3,-31
  0x100001714: 41f7d71b 		sraiw  a4,a5,0x1f
  0x100001718: 01b7571b 		srliw  a4,a4,0x1b
  0x10000171c: 00f7073b 		addw  a4,a4,a5
  0x100001720: 02d7c063 		blt  a5,a3,100001740 <bench_sieve_prepare+0x78>

208 Basic Block: (0x100001724, 0x10000173c)
  0x100001724: 4057571b 		sraiw  a4,a4,0x5
  0x100001728: 00000793 		li  a5,0
  0x10000172c: fff00693 		li  a3,-1
  0x100001730: 00d52023 		sw  a3,0(a0)
  0x100001734: 0017879b 		addiw  a5,a5,1
  0x100001738: 00450513 		addi  a0,a0,4
  0x10000173c: fef75ae3 		bge  a4,a5,100001730 <bench_sieve_prepare+0x68>

209 Basic Block: (0x100001730, 0x10000173c)
  0x100001730: 00d52023 		sw  a3,0(a0)
  0x100001734: 0017879b 		addiw  a5,a5,1
  0x100001738: 00450513 		addi  a0,a0,4
  0x10000173c: fef75ae3 		bge  a4,a5,100001730 <bench_sieve_prepare+0x68>

210 Basic Block: (0x10000173c, 0x10000173c)
  0x10000173c: fef75ae3 		bge  a4,a5,100001730 <bench_sieve_prepare+0x68>

211 Basic Block: (0x100001740, 0x10000174c)
  0x100001740: 00813083 		ld  ra,8(sp)
  0x100001744: 00013403 		ld  s0,0(sp)
  0x100001748: 01010113 		addi  sp,sp,16
  0x10000174c: 00008067 		ret

212 Basic Block: (0x100001750, 0x100001758)
  0x100001750: 000ff617 		auipc  a2,0xff
  0x100001754: 91462603 		lw  a2,-1772(a2) # 100100064 <N>
  0x100001758: 12c05a63 		blez  a2,10000188c <bench_sieve_run+0x13c>

213 Basic Block: (0x10000175c, 0x100001770)
  0x10000175c: 000ff597 		auipc  a1,0xff
  0x100001760: 8fc5b583 		ld  a1,-1796(a1) # 100100058 <primes>
  0x100001764: 0005a683 		lw  a3,0(a1)
  0x100001768: 00100793 		li  a5,1
  0x10000176c: 0026f713 		andi  a4,a3,2
  0x100001770: 00071c63 		bnez  a4,100001788 <bench_sieve_run+0x38>

214 Basic Block: (0x100001788, 0x100001798)
  0x100001788: 0017879b 		addiw  a5,a5,1
  0x10000178c: 4057d71b 		sraiw  a4,a5,0x5
  0x100001790: 00271713 		slli  a4,a4,0x2
  0x100001794: 00e58733 		add  a4,a1,a4
  0x100001798: fef650e3 		bge  a2,a5,100001778 <bench_sieve_run+0x28>

215 Basic Block: (0x100001778, 0x100001784)
  0x100001778: 00072703 		lw  a4,0(a4)
  0x10000177c: 00f7573b 		srlw  a4,a4,a5
  0x100001780: 00177713 		andi  a4,a4,1
  0x100001784: 10070263 		beqz  a4,100001888 <bench_sieve_run+0x138>

216 Basic Block: (0x100001784, 0x100001784)
  0x100001784: 10070263 		beqz  a4,100001888 <bench_sieve_run+0x138>

217 Basic Block: (0x10000179c, 0x1000017a0)
  0x10000179c: 00300793 		li  a5,3
  0x1000017a0: 0cc7dc63 		bge  a5,a2,100001878 <bench_sieve_run+0x128>

218 Basic Block: (0x1000017a4, 0x1000017b0)
  0x1000017a4: 00400893 		li  a7,4
  0x1000017a8: 00200513 		li  a0,2
  0x1000017ac: 00100313 		li  t1,1
  0x1000017b0: 0240006f 		j  1000017d4 <bench_sieve_run+0x84>

219 Basic Block: (0x1000017d4, 0x1000017dc)
  0x1000017d4: 00a6d6bb 		srlw  a3,a3,a0
  0x1000017d8: 0016f693 		andi  a3,a3,1
  0x1000017dc: fc068ce3 		beqz  a3,1000017b4 <bench_sieve_run+0x64>

220 Basic Block: (0x1000017e0, 0x1000017e4)
  0x1000017e0: 0008869b 		sext.w  a3,a7
  0x1000017e4: fd1648e3 		blt  a2,a7,1000017b4 <bench_sieve_run+0x64>

221 Basic Block: (0x1000017e8, 0x100001810)
  0x1000017e8: 4056d713 		srai  a4,a3,0x5
  0x1000017ec: 00271713 		slli  a4,a4,0x2
  0x1000017f0: 00e58733 		add  a4,a1,a4
  0x1000017f4: 00072803 		lw  a6,0(a4)
  0x1000017f8: 01f6f793 		andi  a5,a3,31
  0x1000017fc: 00f317b3 		sll  a5,t1,a5
  0x100001800: fff7c793 		not  a5,a5
  0x100001804: 0107f7b3 		and  a5,a5,a6
  0x100001808: 00f72023 		sw  a5,0(a4)
  0x10000180c: 00d506bb 		addw  a3,a0,a3
  0x100001810: fcd65ce3 		bge  a2,a3,1000017e8 <bench_sieve_run+0x98>

222 Basic Block: (0x100001810, 0x100001810)
  0x100001810: fcd65ce3 		bge  a2,a3,1000017e8 <bench_sieve_run+0x98>

223 Basic Block: (0x100001814, 0x100001820)
  0x100001814: 0015051b 		addiw  a0,a0,1
  0x100001818: 02a5073b 		mulw  a4,a0,a0
  0x10000181c: 0028889b 		addiw  a7,a7,2
  0x100001820: fae652e3 		bge  a2,a4,1000017c4 <bench_sieve_run+0x74>

224 Basic Block: (0x1000017c4, 0x1000017dc)
  0x1000017c4: 4055579b 		sraiw  a5,a0,0x5
  0x1000017c8: 00279793 		slli  a5,a5,0x2
  0x1000017cc: 00f587b3 		add  a5,a1,a5
  0x1000017d0: 0007a683 		lw  a3,0(a5)
  0x1000017d4: 00a6d6bb 		srlw  a3,a3,a0
  0x1000017d8: 0016f693 		andi  a3,a3,1
  0x1000017dc: fc068ce3 		beqz  a3,1000017b4 <bench_sieve_run+0x64>

225 Basic Block: (0x1000017b4, 0x1000017c0)
  0x1000017b4: 0015051b 		addiw  a0,a0,1
  0x1000017b8: 02a5073b 		mulw  a4,a0,a0
  0x1000017bc: 0028889b 		addiw  a7,a7,2
  0x1000017c0: 06e64263 		blt  a2,a4,100001824 <bench_sieve_run+0xd4>

226 Basic Block: (0x100001824, 0x100001858)
  0x100001824: 000ff797 		auipc  a5,0xff
  0x100001828: 8207ae23 		sw  zero,-1988(a5) # 100100060 <ans>
  0x10000182c: 0016061b 		addiw  a2,a2,1
  0x100001830: 00000513 		li  a0,0
  0x100001834: 00000693 		li  a3,0
  0x100001838: 00200713 		li  a4,2
  0x10000183c: 40575793 		srai  a5,a4,0x5
  0x100001840: 00279793 		slli  a5,a5,0x2
  0x100001844: 00f587b3 		add  a5,a1,a5
  0x100001848: 0007a783 		lw  a5,0(a5)
  0x10000184c: 00e7d7bb 		srlw  a5,a5,a4
  0x100001850: 0017f793 		andi  a5,a5,1
  0x100001854: 0017071b 		addiw  a4,a4,1
  0x100001858: 00078663 		beqz  a5,100001864 <bench_sieve_run+0x114>

227 Basic Block: (0x10000185c, 0x100001864)
  0x10000185c: 0016869b 		addiw  a3,a3,1
  0x100001860: 00100513 		li  a0,1
  0x100001864: fce61ce3 		bne  a2,a4,10000183c <bench_sieve_run+0xec>

228 Basic Block: (0x10000183c, 0x100001858)
  0x10000183c: 40575793 		srai  a5,a4,0x5
  0x100001840: 00279793 		slli  a5,a5,0x2
  0x100001844: 00f587b3 		add  a5,a1,a5
  0x100001848: 0007a783 		lw  a5,0(a5)
  0x10000184c: 00e7d7bb 		srlw  a5,a5,a4
  0x100001850: 0017f793 		andi  a5,a5,1
  0x100001854: 0017071b 		addiw  a4,a4,1
  0x100001858: 00078663 		beqz  a5,100001864 <bench_sieve_run+0x114>

229 Basic Block: (0x100001864, 0x100001864)
  0x100001864: fce61ce3 		bne  a2,a4,10000183c <bench_sieve_run+0xec>

230 Basic Block: (0x100001858, 0x100001858)
  0x100001858: 00078663 		beqz  a5,100001864 <bench_sieve_run+0x114>

231 Basic Block: (0x100001868, 0x100001868)
  0x100001868: 02050063 		beqz  a0,100001888 <bench_sieve_run+0x138>

232 Basic Block: (0x10000186c, 0x100001874)
  0x10000186c: 000fe797 		auipc  a5,0xfe
  0x100001870: 7ed7aa23 		sw  a3,2036(a5) # 100100060 <ans>
  0x100001874: 00008067 		ret

233 Basic Block: (0x100001898, 0x1000018b4)
  0x100001898: 000ff797 		auipc  a5,0xff
  0x10000189c: 8787b783 		ld  a5,-1928(a5) # 100100110 <setting>
  0x1000018a0: 0187a503 		lw  a0,24(a5)
  0x1000018a4: 000fe797 		auipc  a5,0xfe
  0x1000018a8: 7bc7a783 		lw  a5,1980(a5) # 100100060 <ans>
  0x1000018ac: 40f50533 		sub  a0,a0,a5
  0x1000018b0: 00153513 		seqz  a0,a0
  0x1000018b4: 00008067 		ret

234 Basic Block: (0x100003434, 0x100003434)
  0x100003434: 00008067 		ret

235 Basic Block: (0x100003458, 0x10000346c)
  0x100003458: ef010113 		addi  sp,sp,-272
  0x10000345c: 01810513 		addi  a0,sp,24
  0x100003460: 10113423 		sd  ra,264(sp)
  0x100003464: 0e913c23 		sd  s1,248(sp)
  0x100003468: 0bb13423 		sd  s11,168(sp)
  0x10000346c: 4d4010ef 		jal  100004940 <_ZN8N_puzzleILi4EEC1Ev>

236 Basic Block: (0x100004940, 0x100004998)
  0x100004940: f6010113 		addi  sp,sp,-160
  0x100004944: 05813823 		sd  s8,80(sp)
  0x100004948: 08113c23 		sd  ra,152(sp)
  0x10000494c: 08813823 		sd  s0,144(sp)
  0x100004950: 08913423 		sd  s1,136(sp)
  0x100004954: 09213023 		sd  s2,128(sp)
  0x100004958: 07313c23 		sd  s3,120(sp)
  0x10000495c: 07413823 		sd  s4,112(sp)
  0x100004960: 07513423 		sd  s5,104(sp)
  0x100004964: 07613023 		sd  s6,96(sp)
  0x100004968: 05713c23 		sd  s7,88(sp)
  0x10000496c: 05913423 		sd  s9,72(sp)
  0x100004970: 00100793 		li  a5,1
  0x100004974: 00f50023 		sb  a5,0(a0)
  0x100004978: 00050c13 		mv  s8,a0
  0x10000497c: 000501a3 		sb  zero,3(a0)
  0x100004980: 00010713 		mv  a4,sp
  0x100004984: 00000793 		li  a5,0
  0x100004988: 01000693 		li  a3,16
  0x10000498c: 00f72023 		sw  a5,0(a4)
  0x100004990: 0017879b 		addiw  a5,a5,1
  0x100004994: 00470713 		addi  a4,a4,4
  0x100004998: fed79ae3 		bne  a5,a3,10000498c <_ZN8N_puzzleILi4EEC1Ev+0x4c>

237 Basic Block: (0x10000498c, 0x100004998)
  0x10000498c: 00f72023 		sw  a5,0(a4)
  0x100004990: 0017879b 		addiw  a5,a5,1
  0x100004994: 00470713 		addi  a4,a4,4
  0x100004998: fed79ae3 		bne  a5,a3,10000498c <_ZN8N_puzzleILi4EEC1Ev+0x4c>

238 Basic Block: (0x10000499c, 0x1000049c0)
  0x10000499c: 03c10a13 		addi  s4,sp,60
  0x1000049a0: 000c0413 		mv  s0,s8
  0x1000049a4: 00000993 		li  s3,0
  0x1000049a8: 00000c93 		li  s9,0
  0x1000049ac: 00400913 		li  s2,4
  0x1000049b0: ff000a93 		li  s5,-16
  0x1000049b4: 000a0b93 		mv  s7,s4
  0x1000049b8: 00000b13 		li  s6,0
  0x1000049bc: 0109849b 		addiw  s1,s3,16
  0x1000049c0: 92dfe0ef 		jal  1000032ec <bench_rand>

239 Basic Block: (0x1000049c4, 0x100004a24)
  0x1000049c4: 416487bb 		subw  a5,s1,s6
  0x1000049c8: 02f576bb 		remuw  a3,a0,a5
  0x1000049cc: 01640833 		add  a6,s0,s6
  0x1000049d0: 00269693 		slli  a3,a3,0x2
  0x1000049d4: 04068793 		addi  a5,a3,64
  0x1000049d8: 002787b3 		add  a5,a5,sp
  0x1000049dc: fc07a583 		lw  a1,-64(a5)
  0x1000049e0: fff5879b 		addiw  a5,a1,-1
  0x1000049e4: 41f7d61b 		sraiw  a2,a5,0x1f
  0x1000049e8: 01e6561b 		srliw  a2,a2,0x1e
  0x1000049ec: 00f607bb 		addw  a5,a2,a5
  0x1000049f0: 0037f713 		andi  a4,a5,3
  0x1000049f4: 40c7073b 		subw  a4,a4,a2
  0x1000049f8: 4027d79b 		sraiw  a5,a5,0x2
  0x1000049fc: 4167073b 		subw  a4,a4,s6
  0x100004a00: 419787bb 		subw  a5,a5,s9
  0x100004a04: 41f7d51b 		sraiw  a0,a5,0x1f
  0x100004a08: 41f7561b 		sraiw  a2,a4,0x1f
  0x100004a0c: 00f547b3 		xor  a5,a0,a5
  0x100004a10: 00e64733 		xor  a4,a2,a4
  0x100004a14: 40a787bb 		subw  a5,a5,a0
  0x100004a18: 40c7073b 		subw  a4,a4,a2
  0x100004a1c: 00b80223 		sb  a1,4(a6)
  0x100004a20: 00e787bb 		addw  a5,a5,a4
  0x100004a24: 0a059263 		bnez  a1,100004ac8 <_ZN8N_puzzleILi4EEC1Ev+0x188>

240 Basic Block: (0x100004ac8, 0x100004ad4)
  0x100004ac8: 003c4703 		lbu  a4,3(s8)
  0x100004acc: 00e787bb 		addw  a5,a5,a4
  0x100004ad0: 00fc01a3 		sb  a5,3(s8)
  0x100004ad4: f5dff06f 		j  100004a30 <_ZN8N_puzzleILi4EEC1Ev+0xf0>

241 Basic Block: (0x100004a30, 0x100004a48)
  0x100004a30: 000ba783 		lw  a5,0(s7)
  0x100004a34: 04068713 		addi  a4,a3,64
  0x100004a38: 002706b3 		add  a3,a4,sp
  0x100004a3c: 001b0b13 		addi  s6,s6,1
  0x100004a40: fcf6a023 		sw  a5,-64(a3)
  0x100004a44: ffcb8b93 		addi  s7,s7,-4
  0x100004a48: f72b1ce3 		bne  s6,s2,1000049c0 <_ZN8N_puzzleILi4EEC1Ev+0x80>

242 Basic Block: (0x1000049c0, 0x1000049c0)
  0x1000049c0: 92dfe0ef 		jal  1000032ec <bench_rand>

243 Basic Block: (0x100004a4c, 0x100004a5c)
  0x100004a4c: ffc9899b 		addiw  s3,s3,-4
  0x100004a50: 001c8c9b 		addiw  s9,s9,1
  0x100004a54: ff0a0a13 		addi  s4,s4,-16
  0x100004a58: 00440413 		addi  s0,s0,4
  0x100004a5c: f5599ce3 		bne  s3,s5,1000049b4 <_ZN8N_puzzleILi4EEC1Ev+0x74>

244 Basic Block: (0x1000049b4, 0x1000049c0)
  0x1000049b4: 000a0b93 		mv  s7,s4
  0x1000049b8: 00000b13 		li  s6,0
  0x1000049bc: 0109849b 		addiw  s1,s3,16
  0x1000049c0: 92dfe0ef 		jal  1000032ec <bench_rand>

245 Basic Block: (0x100004a28, 0x100004a48)
  0x100004a28: 019c00a3 		sb  s9,1(s8)
  0x100004a2c: 016c0123 		sb  s6,2(s8)
  0x100004a30: 000ba783 		lw  a5,0(s7)
  0x100004a34: 04068713 		addi  a4,a3,64
  0x100004a38: 002706b3 		add  a3,a4,sp
  0x100004a3c: 001b0b13 		addi  s6,s6,1
  0x100004a40: fcf6a023 		sw  a5,-64(a3)
  0x100004a44: ffcb8b93 		addi  s7,s7,-4
  0x100004a48: f72b1ce3 		bne  s6,s2,1000049c0 <_ZN8N_puzzleILi4EEC1Ev+0x80>

246 Basic Block: (0x100004a60, 0x100004a84)
  0x100004a60: 004c0613 		addi  a2,s8,4
  0x100004a64: 014c0513 		addi  a0,s8,20
  0x100004a68: 00000693 		li  a3,0
  0x100004a6c: 7b500593 		li  a1,1973
  0x100004a70: ffc60793 		addi  a5,a2,-4
  0x100004a74: 02d586bb 		mulw  a3,a1,a3
  0x100004a78: 00478703 		lb  a4,4(a5)
  0x100004a7c: 00178793 		addi  a5,a5,1
  0x100004a80: 00e686bb 		addw  a3,a3,a4
  0x100004a84: fef618e3 		bne  a2,a5,100004a74 <_ZN8N_puzzleILi4EEC1Ev+0x134>

247 Basic Block: (0x100004a74, 0x100004a84)
  0x100004a74: 02d586bb 		mulw  a3,a1,a3
  0x100004a78: 00478703 		lb  a4,4(a5)
  0x100004a7c: 00178793 		addi  a5,a5,1
  0x100004a80: 00e686bb 		addw  a3,a3,a4
  0x100004a84: fef618e3 		bne  a2,a5,100004a74 <_ZN8N_puzzleILi4EEC1Ev+0x134>

248 Basic Block: (0x100004a88, 0x100004a8c)
  0x100004a88: 00460613 		addi  a2,a2,4
  0x100004a8c: fea612e3 		bne  a2,a0,100004a70 <_ZN8N_puzzleILi4EEC1Ev+0x130>

249 Basic Block: (0x100004a70, 0x100004a84)
  0x100004a70: ffc60793 		addi  a5,a2,-4
  0x100004a74: 02d586bb 		mulw  a3,a1,a3
  0x100004a78: 00478703 		lb  a4,4(a5)
  0x100004a7c: 00178793 		addi  a5,a5,1
  0x100004a80: 00e686bb 		addw  a3,a3,a4
  0x100004a84: fef618e3 		bne  a2,a5,100004a74 <_ZN8N_puzzleILi4EEC1Ev+0x134>

250 Basic Block: (0x100004a90, 0x100004ac4)
  0x100004a90: 09813083 		ld  ra,152(sp)
  0x100004a94: 09013403 		ld  s0,144(sp)
  0x100004a98: 00dc2a23 		sw  a3,20(s8)
  0x100004a9c: 08813483 		ld  s1,136(sp)
  0x100004aa0: 08013903 		ld  s2,128(sp)
  0x100004aa4: 07813983 		ld  s3,120(sp)
  0x100004aa8: 07013a03 		ld  s4,112(sp)
  0x100004aac: 06813a83 		ld  s5,104(sp)
  0x100004ab0: 06013b03 		ld  s6,96(sp)
  0x100004ab4: 05813b83 		ld  s7,88(sp)
  0x100004ab8: 05013c03 		ld  s8,80(sp)
  0x100004abc: 04813c83 		ld  s9,72(sp)
  0x100004ac0: 0a010113 		addi  sp,sp,160
  0x100004ac4: 00008067 		ret

251 Basic Block: (0x100003470, 0x100003480)
  0x100003470: 000fd797 		auipc  a5,0xfd
  0x100003474: ca07b783 		ld  a5,-864(a5) # 100100110 <setting>
  0x100003478: 0007a783 		lw  a5,0(a5)
  0x10000347c: 00100713 		li  a4,1
  0x100003480: 0ce780e3 		beq  a5,a4,100003d40 <bench_15pz_run+0x8e8>

252 Basic Block: (0x100003484, 0x100003488)
  0x100003484: 00200713 		li  a4,2
  0x100003488: 28e78e63 		beq  a5,a4,100003724 <bench_15pz_run+0x2cc>

253 Basic Block: (0x100003724, 0x100003734)
  0x100003724: 06010493 		addi  s1,sp,96
  0x100003728: 0007d597 		auipc  a1,0x7d
  0x10000372c: ea858593 		addi  a1,a1,-344 # 1000805d0 <_ZL8PUZZLE_L>
  0x100003730: 00048513 		mv  a0,s1
  0x100003734: 3a4010ef 		jal  100004ad8 <_ZN8N_puzzleILi4EEC1EPi>

254 Basic Block: (0x100004ad8, 0x100004b60)
  0x100004ad8: ff010113 		addi  sp,sp,-16
  0x100004adc: 00100793 		li  a5,1
  0x100004ae0: 00f50023 		sb  a5,0(a0)
  0x100004ae4: 000501a3 		sb  zero,3(a0)
  0x100004ae8: 00013023 		sd  zero,0(sp)
  0x100004aec: 00013423 		sd  zero,8(sp)
  0x100004af0: 00050e93 		mv  t4,a0
  0x100004af4: 00000e13 		li  t3,0
  0x100004af8: 00100f93 		li  t6,1
  0x100004afc: 00400f13 		li  t5,4
  0x100004b00: 00058313 		mv  t1,a1
  0x100004b04: 00000693 		li  a3,0
  0x100004b08: 00032603 		lw  a2,0(t1)
  0x100004b0c: 00de88b3 		add  a7,t4,a3
  0x100004b10: fff6079b 		addiw  a5,a2,-1
  0x100004b14: 41f7d81b 		sraiw  a6,a5,0x1f
  0x100004b18: 01e8581b 		srliw  a6,a6,0x1e
  0x100004b1c: 00f807bb 		addw  a5,a6,a5
  0x100004b20: 0037f713 		andi  a4,a5,3
  0x100004b24: 4107073b 		subw  a4,a4,a6
  0x100004b28: 40d7073b 		subw  a4,a4,a3
  0x100004b2c: 41f7581b 		sraiw  a6,a4,0x1f
  0x100004b30: 4027d79b 		sraiw  a5,a5,0x2
  0x100004b34: 41c787bb 		subw  a5,a5,t3
  0x100004b38: 00e84733 		xor  a4,a6,a4
  0x100004b3c: 41f7d29b 		sraiw  t0,a5,0x1f
  0x100004b40: 4107073b 		subw  a4,a4,a6
  0x100004b44: 01060813 		addi  a6,a2,16
  0x100004b48: 00f2c7b3 		xor  a5,t0,a5
  0x100004b4c: 00280833 		add  a6,a6,sp
  0x100004b50: 405787bb 		subw  a5,a5,t0
  0x100004b54: 00c88223 		sb  a2,4(a7)
  0x100004b58: fff80823 		sb  t6,-16(a6)
  0x100004b5c: 00e787bb 		addw  a5,a5,a4
  0x100004b60: 06061e63 		bnez  a2,100004bdc <_ZN8N_puzzleILi4EEC1EPi+0x104>

255 Basic Block: (0x100004b64, 0x100004b74)
  0x100004b64: 01c500a3 		sb  t3,1(a0)
  0x100004b68: 00d50123 		sb  a3,2(a0)
  0x100004b6c: 00168693 		addi  a3,a3,1
  0x100004b70: 00430313 		addi  t1,t1,4
  0x100004b74: f9e69ae3 		bne  a3,t5,100004b08 <_ZN8N_puzzleILi4EEC1EPi+0x30>

256 Basic Block: (0x100004b08, 0x100004b60)
  0x100004b08: 00032603 		lw  a2,0(t1)
  0x100004b0c: 00de88b3 		add  a7,t4,a3
  0x100004b10: fff6079b 		addiw  a5,a2,-1
  0x100004b14: 41f7d81b 		sraiw  a6,a5,0x1f
  0x100004b18: 01e8581b 		srliw  a6,a6,0x1e
  0x100004b1c: 00f807bb 		addw  a5,a6,a5
  0x100004b20: 0037f713 		andi  a4,a5,3
  0x100004b24: 4107073b 		subw  a4,a4,a6
  0x100004b28: 40d7073b 		subw  a4,a4,a3
  0x100004b2c: 41f7581b 		sraiw  a6,a4,0x1f
  0x100004b30: 4027d79b 		sraiw  a5,a5,0x2
  0x100004b34: 41c787bb 		subw  a5,a5,t3
  0x100004b38: 00e84733 		xor  a4,a6,a4
  0x100004b3c: 41f7d29b 		sraiw  t0,a5,0x1f
  0x100004b40: 4107073b 		subw  a4,a4,a6
  0x100004b44: 01060813 		addi  a6,a2,16
  0x100004b48: 00f2c7b3 		xor  a5,t0,a5
  0x100004b4c: 00280833 		add  a6,a6,sp
  0x100004b50: 405787bb 		subw  a5,a5,t0
  0x100004b54: 00c88223 		sb  a2,4(a7)
  0x100004b58: fff80823 		sb  t6,-16(a6)
  0x100004b5c: 00e787bb 		addw  a5,a5,a4
  0x100004b60: 06061e63 		bnez  a2,100004bdc <_ZN8N_puzzleILi4EEC1EPi+0x104>

257 Basic Block: (0x100004bdc, 0x100004be8)
  0x100004bdc: 00354703 		lbu  a4,3(a0)
  0x100004be0: 00e787bb 		addw  a5,a5,a4
  0x100004be4: 00f501a3 		sb  a5,3(a0)
  0x100004be8: f85ff06f 		j  100004b6c <_ZN8N_puzzleILi4EEC1EPi+0x94>

258 Basic Block: (0x100004b6c, 0x100004b74)
  0x100004b6c: 00168693 		addi  a3,a3,1
  0x100004b70: 00430313 		addi  t1,t1,4
  0x100004b74: f9e69ae3 		bne  a3,t5,100004b08 <_ZN8N_puzzleILi4EEC1EPi+0x30>

259 Basic Block: (0x100004b78, 0x100004b84)
  0x100004b78: 001e0e1b 		addiw  t3,t3,1
  0x100004b7c: 01058593 		addi  a1,a1,16
  0x100004b80: 004e8e93 		addi  t4,t4,4
  0x100004b84: f6de1ee3 		bne  t3,a3,100004b00 <_ZN8N_puzzleILi4EEC1EPi+0x28>

260 Basic Block: (0x100004b00, 0x100004b60)
  0x100004b00: 00058313 		mv  t1,a1
  0x100004b04: 00000693 		li  a3,0
  0x100004b08: 00032603 		lw  a2,0(t1)
  0x100004b0c: 00de88b3 		add  a7,t4,a3
  0x100004b10: fff6079b 		addiw  a5,a2,-1
  0x100004b14: 41f7d81b 		sraiw  a6,a5,0x1f
  0x100004b18: 01e8581b 		srliw  a6,a6,0x1e
  0x100004b1c: 00f807bb 		addw  a5,a6,a5
  0x100004b20: 0037f713 		andi  a4,a5,3
  0x100004b24: 4107073b 		subw  a4,a4,a6
  0x100004b28: 40d7073b 		subw  a4,a4,a3
  0x100004b2c: 41f7581b 		sraiw  a6,a4,0x1f
  0x100004b30: 4027d79b 		sraiw  a5,a5,0x2
  0x100004b34: 41c787bb 		subw  a5,a5,t3
  0x100004b38: 00e84733 		xor  a4,a6,a4
  0x100004b3c: 41f7d29b 		sraiw  t0,a5,0x1f
  0x100004b40: 4107073b 		subw  a4,a4,a6
  0x100004b44: 01060813 		addi  a6,a2,16
  0x100004b48: 00f2c7b3 		xor  a5,t0,a5
  0x100004b4c: 00280833 		add  a6,a6,sp
  0x100004b50: 405787bb 		subw  a5,a5,t0
  0x100004b54: 00c88223 		sb  a2,4(a7)
  0x100004b58: fff80823 		sb  t6,-16(a6)
  0x100004b5c: 00e787bb 		addw  a5,a5,a4
  0x100004b60: 06061e63 		bnez  a2,100004bdc <_ZN8N_puzzleILi4EEC1EPi+0x104>

261 Basic Block: (0x100004b88, 0x100004b98)
  0x100004b88: 00010793 		mv  a5,sp
  0x100004b8c: 01010693 		addi  a3,sp,16
  0x100004b90: 0007c703 		lbu  a4,0(a5)
  0x100004b94: 00178793 		addi  a5,a5,1
  0x100004b98: 04070a63 		beqz  a4,100004bec <_ZN8N_puzzleILi4EEC1EPi+0x114>

262 Basic Block: (0x100004b9c, 0x100004b9c)
  0x100004b9c: fed79ae3 		bne  a5,a3,100004b90 <_ZN8N_puzzleILi4EEC1EPi+0xb8>

263 Basic Block: (0x100004b90, 0x100004b98)
  0x100004b90: 0007c703 		lbu  a4,0(a5)
  0x100004b94: 00178793 		addi  a5,a5,1
  0x100004b98: 04070a63 		beqz  a4,100004bec <_ZN8N_puzzleILi4EEC1EPi+0x114>

264 Basic Block: (0x100004ba0, 0x100004bc4)
  0x100004ba0: 00450613 		addi  a2,a0,4
  0x100004ba4: 01450813 		addi  a6,a0,20
  0x100004ba8: 00000693 		li  a3,0
  0x100004bac: 7b500593 		li  a1,1973
  0x100004bb0: ffc60793 		addi  a5,a2,-4
  0x100004bb4: 02d586bb 		mulw  a3,a1,a3
  0x100004bb8: 00478703 		lb  a4,4(a5)
  0x100004bbc: 00178793 		addi  a5,a5,1
  0x100004bc0: 00e686bb 		addw  a3,a3,a4
  0x100004bc4: fec798e3 		bne  a5,a2,100004bb4 <_ZN8N_puzzleILi4EEC1EPi+0xdc>

265 Basic Block: (0x100004bb4, 0x100004bc4)
  0x100004bb4: 02d586bb 		mulw  a3,a1,a3
  0x100004bb8: 00478703 		lb  a4,4(a5)
  0x100004bbc: 00178793 		addi  a5,a5,1
  0x100004bc0: 00e686bb 		addw  a3,a3,a4
  0x100004bc4: fec798e3 		bne  a5,a2,100004bb4 <_ZN8N_puzzleILi4EEC1EPi+0xdc>

266 Basic Block: (0x100004bc8, 0x100004bcc)
  0x100004bc8: 00478613 		addi  a2,a5,4
  0x100004bcc: ff0612e3 		bne  a2,a6,100004bb0 <_ZN8N_puzzleILi4EEC1EPi+0xd8>

267 Basic Block: (0x100004bb0, 0x100004bc4)
  0x100004bb0: ffc60793 		addi  a5,a2,-4
  0x100004bb4: 02d586bb 		mulw  a3,a1,a3
  0x100004bb8: 00478703 		lb  a4,4(a5)
  0x100004bbc: 00178793 		addi  a5,a5,1
  0x100004bc0: 00e686bb 		addw  a3,a3,a4
  0x100004bc4: fec798e3 		bne  a5,a2,100004bb4 <_ZN8N_puzzleILi4EEC1EPi+0xdc>

268 Basic Block: (0x100004bd0, 0x100004bd8)
  0x100004bd0: 00d52a23 		sw  a3,20(a0)
  0x100004bd4: 01010113 		addi  sp,sp,16
  0x100004bd8: 00008067 		ret

269 Basic Block: (0x100003738, 0x100003764)
  0x100003738: 07412703 		lw  a4,116(sp)
  0x10000373c: 06012683 		lw  a3,96(sp)
  0x100003740: 00048793 		mv  a5,s1
  0x100003744: 02e12623 		sw  a4,44(sp)
  0x100003748: 00d12c23 		sw  a3,24(sp)
  0x10000374c: 01810713 		addi  a4,sp,24
  0x100003750: 07010613 		addi  a2,sp,112
  0x100003754: 0047a683 		lw  a3,4(a5) # ffffffff80000004 <_pmem_end+0xfffffffe40000004>
  0x100003758: 00478793 		addi  a5,a5,4
  0x10000375c: 00470713 		addi  a4,a4,4
  0x100003760: 00d72023 		sw  a3,0(a4)
  0x100003764: fec798e3 		bne  a5,a2,100003754 <bench_15pz_run+0x2fc>

270 Basic Block: (0x100003754, 0x100003764)
  0x100003754: 0047a683 		lw  a3,4(a5) # ffffffff80000004 <_pmem_end+0xfffffffe40000004>
  0x100003758: 00478793 		addi  a5,a5,4
  0x10000375c: 00470713 		addi  a4,a4,4
  0x100003760: 00d72023 		sw  a3,0(a4)
  0x100003764: fec798e3 		bne  a5,a2,100003754 <bench_15pz_run+0x2fc>

271 Basic Block: (0x100003768, 0x10000376c)
  0x100003768: 00004db7 		lui  s11,0x4
  0x10000376c: d6dff06f 		j  1000034d8 <bench_15pz_run+0x80>

272 Basic Block: (0x1000034d8, 0x1000034dc)
  0x1000034d8: 01810513 		addi  a0,sp,24
  0x1000034dc: 71c010ef 		jal  100004bf8 <_ZNK8N_puzzleILi4EE8solvableEv>

273 Basic Block: (0x100004bf8, 0x100004c00)
  0x100004bf8: 00050e13 		mv  t3,a0
  0x100004bfc: 00054503 		lbu  a0,0(a0)
  0x100004c00: 0a050863 		beqz  a0,100004cb0 <_ZNK8N_puzzleILi4EE8solvableEv+0xb8>

274 Basic Block: (0x100004c04, 0x100004c28)
  0x100004c04: fc010113 		addi  sp,sp,-64
  0x100004c08: 004e0613 		addi  a2,t3,4
  0x100004c0c: 00010813 		mv  a6,sp
  0x100004c10: 00000593 		li  a1,0
  0x100004c14: 01000513 		li  a0,16
  0x100004c18: ffc60793 		addi  a5,a2,-4
  0x100004c1c: 00080693 		mv  a3,a6
  0x100004c20: 00478703 		lb  a4,4(a5)
  0x100004c24: 00178793 		addi  a5,a5,1
  0x100004c28: 00071463 		bnez  a4,100004c30 <_ZNK8N_puzzleILi4EE8solvableEv+0x38>

275 Basic Block: (0x100004c2c, 0x100004c38)
  0x100004c2c: 01000713 		li  a4,16
  0x100004c30: 00e6a023 		sw  a4,0(a3)
  0x100004c34: 00468693 		addi  a3,a3,4
  0x100004c38: fec794e3 		bne  a5,a2,100004c20 <_ZNK8N_puzzleILi4EE8solvableEv+0x28>

276 Basic Block: (0x100004c20, 0x100004c28)
  0x100004c20: 00478703 		lb  a4,4(a5)
  0x100004c24: 00178793 		addi  a5,a5,1
  0x100004c28: 00071463 		bnez  a4,100004c30 <_ZNK8N_puzzleILi4EE8solvableEv+0x38>

277 Basic Block: (0x100004c30, 0x100004c38)
  0x100004c30: 00e6a023 		sw  a4,0(a3)
  0x100004c34: 00468693 		addi  a3,a3,4
  0x100004c38: fec794e3 		bne  a5,a2,100004c20 <_ZNK8N_puzzleILi4EE8solvableEv+0x28>

278 Basic Block: (0x100004c3c, 0x100004c48)
  0x100004c3c: 00458593 		addi  a1,a1,4
  0x100004c40: 00478613 		addi  a2,a5,4
  0x100004c44: 01080813 		addi  a6,a6,16
  0x100004c48: fca598e3 		bne  a1,a0,100004c18 <_ZNK8N_puzzleILi4EE8solvableEv+0x20>

279 Basic Block: (0x100004c18, 0x100004c28)
  0x100004c18: ffc60793 		addi  a5,a2,-4
  0x100004c1c: 00080693 		mv  a3,a6
  0x100004c20: 00478703 		lb  a4,4(a5)
  0x100004c24: 00178793 		addi  a5,a5,1
  0x100004c28: 00071463 		bnez  a4,100004c30 <_ZNK8N_puzzleILi4EE8solvableEv+0x38>

280 Basic Block: (0x100004c4c, 0x100004c70)
  0x100004c4c: 00410813 		addi  a6,sp,4
  0x100004c50: 00100893 		li  a7,1
  0x100004c54: 00000593 		li  a1,0
  0x100004c58: 04010613 		addi  a2,sp,64
  0x100004c5c: 01000313 		li  t1,16
  0x100004c60: ffc82683 		lw  a3,-4(a6)
  0x100004c64: 00080793 		mv  a5,a6
  0x100004c68: 0007a703 		lw  a4,0(a5)
  0x100004c6c: 00478793 		addi  a5,a5,4
  0x100004c70: 00d75463 		bge  a4,a3,100004c78 <_ZNK8N_puzzleILi4EE8solvableEv+0x80>

281 Basic Block: (0x100004c74, 0x100004c78)
  0x100004c74: 0015859b 		addiw  a1,a1,1
  0x100004c78: fef618e3 		bne  a2,a5,100004c68 <_ZNK8N_puzzleILi4EE8solvableEv+0x70>

282 Basic Block: (0x100004c68, 0x100004c70)
  0x100004c68: 0007a703 		lw  a4,0(a5)
  0x100004c6c: 00478793 		addi  a5,a5,4
  0x100004c70: 00d75463 		bge  a4,a3,100004c78 <_ZNK8N_puzzleILi4EE8solvableEv+0x80>

283 Basic Block: (0x100004c7c, 0x100004c84)
  0x100004c7c: 00188893 		addi  a7,a7,1
  0x100004c80: 00480813 		addi  a6,a6,4
  0x100004c84: fc689ee3 		bne  a7,t1,100004c60 <_ZNK8N_puzzleILi4EE8solvableEv+0x68>

284 Basic Block: (0x100004c60, 0x100004c70)
  0x100004c60: ffc82683 		lw  a3,-4(a6)
  0x100004c64: 00080793 		mv  a5,a6
  0x100004c68: 0007a703 		lw  a4,0(a5)
  0x100004c6c: 00478793 		addi  a5,a5,4
  0x100004c70: 00d75463 		bge  a4,a3,100004c78 <_ZNK8N_puzzleILi4EE8solvableEv+0x80>

285 Basic Block: (0x100004c78, 0x100004c78)
  0x100004c78: fef618e3 		bne  a2,a5,100004c68 <_ZNK8N_puzzleILi4EE8solvableEv+0x70>

286 Basic Block: (0x100004c88, 0x100004cac)
  0x100004c88: 001e4703 		lbu  a4,1(t3)
  0x100004c8c: 002e4783 		lbu  a5,2(t3)
  0x100004c90: 00600513 		li  a0,6
  0x100004c94: 40e5053b 		subw  a0,a0,a4
  0x100004c98: 40f5053b 		subw  a0,a0,a5
  0x100004c9c: 00b5053b 		addw  a0,a0,a1
  0x100004ca0: fff54513 		not  a0,a0
  0x100004ca4: 00157513 		andi  a0,a0,1
  0x100004ca8: 04010113 		addi  sp,sp,64
  0x100004cac: 00008067 		ret

287 Basic Block: (0x1000034e0, 0x1000034e8)
  0x1000034e0: 10813023 		sd  s0,256(sp)
  0x1000034e4: 0f213823 		sd  s2,240(sp)
  0x1000034e8: 0e0508e3 		beqz  a0,100003dd8 <bench_15pz_run+0x980>

288 Basic Block: (0x1000034ec, 0x1000034f0)
  0x1000034ec: 02000513 		li  a0,32
  0x1000034f0: d49ff0ef 		jal  100003238 <bench_alloc>

289 Basic Block: (0x1000034f4, 0x100003500)
  0x1000034f4: 00050413 		mv  s0,a0
  0x1000034f8: 01b52023 		sw  s11,0(a0)
  0x1000034fc: 003d9513 		slli  a0,s11,0x3
  0x100003500: d39ff0ef 		jal  100003238 <bench_alloc>

290 Basic Block: (0x100003504, 0x100003514)
  0x100003504: 00042783 		lw  a5,0(s0)
  0x100003508: 00a43823 		sd  a0,16(s0)
  0x10000350c: 0017879b 		addiw  a5,a5,1
  0x100003510: 00379513 		slli  a0,a5,0x3
  0x100003514: d25ff0ef 		jal  100003238 <bench_alloc>

291 Basic Block: (0x100003518, 0x100003530)
  0x100003518: 00042683 		lw  a3,0(s0)
  0x10000351c: 00a43423 		sd  a0,8(s0)
  0x100003520: 00043c23 		sd  zero,24(s0)
  0x100003524: 00369713 		slli  a4,a3,0x3
  0x100003528: 00050793 		mv  a5,a0
  0x10000352c: 00e50733 		add  a4,a0,a4
  0x100003530: 00d05863 		blez  a3,100003540 <bench_15pz_run+0xe8>

292 Basic Block: (0x100003534, 0x10000353c)
  0x100003534: 0007b023 		sd  zero,0(a5)
  0x100003538: 00878793 		addi  a5,a5,8
  0x10000353c: fee79ce3 		bne  a5,a4,100003534 <bench_15pz_run+0xdc>

293 Basic Block: (0x10000353c, 0x10000353c)
  0x10000353c: fee79ce3 		bne  a5,a4,100003534 <bench_15pz_run+0xdc>

294 Basic Block: (0x100003540, 0x10000354c)
  0x100003540: 00000613 		li  a2,0
  0x100003544: 01810593 		addi  a1,sp,24
  0x100003548: 00040513 		mv  a0,s0
  0x10000354c: 7d8010ef 		jal  100004d24 <_ZN14Updatable_heapI8N_puzzleILi4EEE4pushERKS1_i>

295 Basic Block: (0x100004d24, 0x100004d58)
  0x100004d24: fd010113 		addi  sp,sp,-48
  0x100004d28: 01313423 		sd  s3,8(sp)
  0x100004d2c: 00052983 		lw  s3,0(a0)
  0x100004d30: 00913c23 		sd  s1,24(sp)
  0x100004d34: 00058493 		mv  s1,a1
  0x100004d38: 00853583 		ld  a1,8(a0)
  0x100004d3c: 02813023 		sd  s0,32(sp)
  0x100004d40: 01213823 		sd  s2,16(sp)
  0x100004d44: 00050413 		mv  s0,a0
  0x100004d48: 00060913 		mv  s2,a2
  0x100004d4c: 00098513 		mv  a0,s3
  0x100004d50: 00048613 		mv  a2,s1
  0x100004d54: 02113423 		sd  ra,40(sp)
  0x100004d58: e40fe0ef 		jal  100003398 <_ZNK14Updatable_heapI8N_puzzleILi4EEE7pointerERKS1_.isra.0>

296 Basic Block: (0x100003398, 0x10000339c)
  0x100003398: 00064803 		lbu  a6,0(a2)
  0x10000339c: 00080e63 		beqz  a6,1000033b8 <_ZNK14Updatable_heapI8N_puzzleILi4EEE7pointerERKS1_.isra.0+0x20>

297 Basic Block: (0x1000033a0, 0x1000033bc)
  0x1000033a0: 01462783 		lw  a5,20(a2)
  0x1000033a4: fff5051b 		addiw  a0,a0,-1
  0x1000033a8: 00a7f7b3 		and  a5,a5,a0
  0x1000033ac: 02079713 		slli  a4,a5,0x20
  0x1000033b0: 01d75793 		srli  a5,a4,0x1d
  0x1000033b4: 00f585b3 		add  a1,a1,a5
  0x1000033b8: 0005b503 		ld  a0,0(a1)
  0x1000033bc: 06050a63 		beqz  a0,100003430 <_ZNK14Updatable_heapI8N_puzzleILi4EEE7pointerERKS1_.isra.0+0x98>

298 Basic Block: (0x100003430, 0x100003430)
  0x100003430: 00008067 		ret

299 Basic Block: (0x100004d5c, 0x100004d5c)
  0x100004d5c: 04050263 		beqz  a0,100004da0 <_ZN14Updatable_heapI8N_puzzleILi4EEE4pushERKS1_i+0x7c>

300 Basic Block: (0x100004da0, 0x100004da4)
  0x100004da0: 01842783 		lw  a5,24(s0)
  0x100004da4: 16f9c063 		blt  s3,a5,100004f04 <_ZN14Updatable_heapI8N_puzzleILi4EEE4pushERKS1_i+0x1e0>

301 Basic Block: (0x100004da8, 0x100004db4)
  0x100004da8: 0017879b 		addiw  a5,a5,1
  0x100004dac: 00f42c23 		sw  a5,24(s0)
  0x100004db0: 03800513 		li  a0,56
  0x100004db4: c84fe0ef 		jal  100003238 <bench_alloc>

302 Basic Block: (0x100004db8, 0x100004dc8)
  0x100004db8: 0004c883 		lbu  a7,0(s1)
  0x100004dbc: 00843803 		ld  a6,8(s0)
  0x100004dc0: 0144a583 		lw  a1,20(s1)
  0x100004dc4: 00000713 		li  a4,0
  0x100004dc8: 0e089c63 		bnez  a7,100004ec0 <_ZN14Updatable_heapI8N_puzzleILi4EEE4pushERKS1_i+0x19c>

303 Basic Block: (0x100004ec0, 0x100004ec4)
  0x100004ec0: 0005871b 		sext.w  a4,a1
  0x100004ec4: f09ff06f 		j  100004dcc <_ZN14Updatable_heapI8N_puzzleILi4EEE4pushERKS1_i+0xa8>

304 Basic Block: (0x100004dcc, 0x100004e3c)
  0x100004dcc: 00042783 		lw  a5,0(s0)
  0x100004dd0: 01842983 		lw  s3,24(s0)
  0x100004dd4: 02091613 		slli  a2,s2,0x20
  0x100004dd8: fff7879b 		addiw  a5,a5,-1
  0x100004ddc: 00f77733 		and  a4,a4,a5
  0x100004de0: 02071693 		slli  a3,a4,0x20
  0x100004de4: 01d6d713 		srli  a4,a3,0x1d
  0x100004de8: 00e80733 		add  a4,a6,a4
  0x100004dec: 00073e83 		ld  t4,0(a4)
  0x100004df0: 01150023 		sb  a7,0(a0)
  0x100004df4: 0014c703 		lbu  a4,1(s1)
  0x100004df8: 02099313 		slli  t1,s3,0x20
  0x100004dfc: 02035313 		srli  t1,t1,0x20
  0x100004e00: 00e500a3 		sb  a4,1(a0)
  0x100004e04: 0024c703 		lbu  a4,2(s1)
  0x100004e08: 0007869b 		sext.w  a3,a5
  0x100004e0c: 00c36333 		or  t1,t1,a2
  0x100004e10: 00e50123 		sb  a4,2(a0)
  0x100004e14: 00348e03 		lb  t3,3(s1)
  0x100004e18: 00448793 		addi  a5,s1,4
  0x100004e1c: 00b52a23 		sw  a1,20(a0)
  0x100004e20: 00450713 		addi  a4,a0,4
  0x100004e24: 01c501a3 		sb  t3,3(a0)
  0x100004e28: 01448593 		addi  a1,s1,20
  0x100004e2c: 0007a603 		lw  a2,0(a5)
  0x100004e30: 00478793 		addi  a5,a5,4
  0x100004e34: 00470713 		addi  a4,a4,4
  0x100004e38: fec72e23 		sw  a2,-4(a4)
  0x100004e3c: feb798e3 		bne  a5,a1,100004e2c <_ZN14Updatable_heapI8N_puzzleILi4EEE4pushERKS1_i+0x108>

305 Basic Block: (0x100004e2c, 0x100004e3c)
  0x100004e2c: 0007a603 		lw  a2,0(a5)
  0x100004e30: 00478793 		addi  a5,a5,4
  0x100004e34: 00470713 		addi  a4,a4,4
  0x100004e38: fec72e23 		sw  a2,-4(a4)
  0x100004e3c: feb798e3 		bne  a5,a1,100004e2c <_ZN14Updatable_heapI8N_puzzleILi4EEE4pushERKS1_i+0x108>

306 Basic Block: (0x100004e40, 0x100004e48)
  0x100004e40: 01d53c23 		sd  t4,24(a0)
  0x100004e44: 02653023 		sd  t1,32(a0)
  0x100004e48: 0a088463 		beqz  a7,100004ef0 <_ZN14Updatable_heapI8N_puzzleILi4EEE4pushERKS1_i+0x1cc>

307 Basic Block: (0x100004e4c, 0x100004e8c)
  0x100004e4c: 0144a783 		lw  a5,20(s1)
  0x100004e50: 012e0e3b 		addw  t3,t3,s2
  0x100004e54: 03c52423 		sw  t3,40(a0)
  0x100004e58: 00f6f7b3 		and  a5,a3,a5
  0x100004e5c: 02079713 		slli  a4,a5,0x20
  0x100004e60: 01d75793 		srli  a5,a4,0x1d
  0x100004e64: 02050623 		sb  zero,44(a0)
  0x100004e68: 02053823 		sd  zero,48(a0)
  0x100004e6c: 00f80833 		add  a6,a6,a5
  0x100004e70: 01043783 		ld  a5,16(s0)
  0x100004e74: 00399713 		slli  a4,s3,0x3
  0x100004e78: 00a83023 		sd  a0,0(a6)
  0x100004e7c: 00e787b3 		add  a5,a5,a4
  0x100004e80: 00a7b023 		sd  a0,0(a5)
  0x100004e84: 00098593 		mv  a1,s3
  0x100004e88: 00040513 		mv  a0,s0
  0x100004e8c: e29ff0ef 		jal  100004cb4 <_ZN14Updatable_heapI8N_puzzleILi4EEE12percolate_upEi>

308 Basic Block: (0x100004cb4, 0x100004cb8)
  0x100004cb4: 00100793 		li  a5,1
  0x100004cb8: 06f58463 		beq  a1,a5,100004d20 <_ZN14Updatable_heapI8N_puzzleILi4EEE12percolate_upEi+0x6c>

309 Basic Block: (0x100004d20, 0x100004d20)
  0x100004d20: 00008067 		ret

310 Basic Block: (0x100004e90, 0x100004e98)
  0x100004e90: 01c42783 		lw  a5,28(s0)
  0x100004e94: 00078713 		mv  a4,a5
  0x100004e98: 0137d463 		bge  a5,s3,100004ea0 <_ZN14Updatable_heapI8N_puzzleILi4EEE4pushERKS1_i+0x17c>

311 Basic Block: (0x100004e9c, 0x100004ebc)
  0x100004e9c: 00098713 		mv  a4,s3
  0x100004ea0: 02813083 		ld  ra,40(sp)
  0x100004ea4: 00e42e23 		sw  a4,28(s0)
  0x100004ea8: 02013403 		ld  s0,32(sp)
  0x100004eac: 01813483 		ld  s1,24(sp)
  0x100004eb0: 01013903 		ld  s2,16(sp)
  0x100004eb4: 00813983 		ld  s3,8(sp)
  0x100004eb8: 03010113 		addi  sp,sp,48
  0x100004ebc: 00008067 		ret

312 Basic Block: (0x100003550, 0x100003568)
  0x100003550: 01842603 		lw  a2,24(s0)
  0x100003554: fff00793 		li  a5,-1
  0x100003558: 000fd717 		auipc  a4,0xfd
  0x10000355c: bc870713 		addi  a4,a4,-1080 # 100100120 <_ZL3ans>
  0x100003560: 00f72023 		sw  a5,0(a4)
  0x100003564: 00000913 		li  s2,0
  0x100003568: 1a060063 		beqz  a2,100003708 <bench_15pz_run+0x2b0>

313 Basic Block: (0x10000356c, 0x1000035d8)
  0x10000356c: 0d613823 		sd  s6,208(sp)
  0x100003570: 0d713423 		sd  s7,200(sp)
  0x100003574: 0f313423 		sd  s3,232(sp)
  0x100003578: 0f413023 		sd  s4,224(sp)
  0x10000357c: 0d513c23 		sd  s5,216(sp)
  0x100003580: 0d813023 		sd  s8,192(sp)
  0x100003584: 0b913c23 		sd  s9,184(sp)
  0x100003588: 0ba13823 		sd  s10,176(sp)
  0x10000358c: 01048b93 		addi  s7,s1,16
  0x100003590: 04010b13 		addi  s6,sp,64
  0x100003594: 01043803 		ld  a6,16(s0)
  0x100003598: 00048c13 		mv  s8,s1
  0x10000359c: 00048693 		mv  a3,s1
  0x1000035a0: 00883703 		ld  a4,8(a6)
  0x1000035a4: 00370783 		lb  a5,3(a4)
  0x1000035a8: 00074c83 		lbu  s9,0(a4)
  0x1000035ac: 00174983 		lbu  s3,1(a4)
  0x1000035b0: 00274a83 		lbu  s5,2(a4)
  0x1000035b4: 00072a03 		lw  s4,0(a4)
  0x1000035b8: 01472d03 		lw  s10,20(a4)
  0x1000035bc: 00f13423 		sd  a5,8(sp)
  0x1000035c0: 00470793 		addi  a5,a4,4
  0x1000035c4: 01470713 		addi  a4,a4,20
  0x1000035c8: 0007a583 		lw  a1,0(a5)
  0x1000035cc: 00478793 		addi  a5,a5,4
  0x1000035d0: 00468693 		addi  a3,a3,4
  0x1000035d4: 00b6a023 		sw  a1,0(a3)
  0x1000035d8: fee798e3 		bne  a5,a4,1000035c8 <bench_15pz_run+0x170>

314 Basic Block: (0x1000035c8, 0x1000035d8)
  0x1000035c8: 0007a583 		lw  a1,0(a5)
  0x1000035cc: 00478793 		addi  a5,a5,4
  0x1000035d0: 00468693 		addi  a3,a3,4
  0x1000035d4: 00b6a023 		sw  a1,0(a3)
  0x1000035d8: fee798e3 		bne  a5,a4,1000035c8 <bench_15pz_run+0x170>

315 Basic Block: (0x1000035dc, 0x1000035e0)
  0x1000035dc: 00100793 		li  a5,1
  0x1000035e0: 72f60c63 		beq  a2,a5,100003d18 <bench_15pz_run+0x8c0>

316 Basic Block: (0x100003d18, 0x100003d1c)
  0x100003d18: 00042c23 		sw  zero,24(s0)
  0x100003d1c: 8f9ff06f 		j  100003614 <bench_15pz_run+0x1bc>

317 Basic Block: (0x100003614, 0x100003634)
  0x100003614: 03412823 		sw  s4,48(sp)
  0x100003618: 03010a13 		addi  s4,sp,48
  0x10000361c: 05a12223 		sw  s10,68(sp)
  0x100003620: 000a0793 		mv  a5,s4
  0x100003624: 004c2703 		lw  a4,4(s8)
  0x100003628: 004c0c13 		addi  s8,s8,4
  0x10000362c: 00478793 		addi  a5,a5,4
  0x100003630: 00e7a023 		sw  a4,0(a5)
  0x100003634: ff7c18e3 		bne  s8,s7,100003624 <bench_15pz_run+0x1cc>

318 Basic Block: (0x100003624, 0x100003634)
  0x100003624: 004c2703 		lw  a4,4(s8)
  0x100003628: 004c0c13 		addi  s8,s8,4
  0x10000362c: 00478793 		addi  a5,a5,4
  0x100003630: 00e7a023 		sw  a4,0(a5)
  0x100003634: ff7c18e3 		bne  s8,s7,100003624 <bench_15pz_run+0x1cc>

319 Basic Block: (0x100003638, 0x100003658)
  0x100003638: 0019091b 		addiw  s2,s2,1
  0x10000363c: 00090c13 		mv  s8,s2
  0x100003640: 00048713 		mv  a4,s1
  0x100003644: 00000793 		li  a5,0
  0x100003648: 00f00693 		li  a3,15
  0x10000364c: 0017879b 		addiw  a5,a5,1
  0x100003650: 00f72023 		sw  a5,0(a4)
  0x100003654: 00470713 		addi  a4,a4,4
  0x100003658: fed79ae3 		bne  a5,a3,10000364c <bench_15pz_run+0x1f4>

320 Basic Block: (0x10000364c, 0x100003658)
  0x10000364c: 0017879b 		addiw  a5,a5,1
  0x100003650: 00f72023 		sw  a5,0(a4)
  0x100003654: 00470713 		addi  a4,a4,4
  0x100003658: fed79ae3 		bne  a5,a3,10000364c <bench_15pz_run+0x1f4>

321 Basic Block: (0x10000365c, 0x100003668)
  0x10000365c: 00048593 		mv  a1,s1
  0x100003660: 04810513 		addi  a0,sp,72
  0x100003664: 08012e23 		sw  zero,156(sp)
  0x100003668: 470010ef 		jal  100004ad8 <_ZN8N_puzzleILi4EEC1EPi>

322 Basic Block: (0x10000366c, 0x10000366c)
  0x10000366c: 3e0c8063 		beqz  s9,100003a4c <bench_15pz_run+0x5f4>

323 Basic Block: (0x100003670, 0x100003674)
  0x100003670: 04814783 		lbu  a5,72(sp)
  0x100003674: 0e078e63 		beqz  a5,100003770 <bench_15pz_run+0x318>

324 Basic Block: (0x100003678, 0x100003680)
  0x100003678: 05c12783 		lw  a5,92(sp)
  0x10000367c: 00400693 		li  a3,4
  0x100003680: 0fa79863 		bne  a5,s10,100003770 <bench_15pz_run+0x318>

325 Basic Block: (0x100003770, 0x100003780)
  0x100003770: 00300793 		li  a5,3
  0x100003774: 00814d03 		lbu  s10,8(sp)
  0x100003778: 00098c1b 		sext.w  s8,s3
  0x10000377c: 000a8c9b 		sext.w  s9,s5
  0x100003780: 44fa8063 		beq  s5,a5,100003bc0 <bench_15pz_run+0x768>

326 Basic Block: (0x100003784, 0x1000037a0)
  0x100003784: 00048813 		mv  a6,s1
  0x100003788: 00048713 		mv  a4,s1
  0x10000378c: 03010793 		addi  a5,sp,48
  0x100003790: 0047a683 		lw  a3,4(a5)
  0x100003794: 00478793 		addi  a5,a5,4
  0x100003798: 00470713 		addi  a4,a4,4
  0x10000379c: 00d72023 		sw  a3,0(a4)
  0x1000037a0: fefb18e3 		bne  s6,a5,100003790 <bench_15pz_run+0x338>

327 Basic Block: (0x100003790, 0x1000037a0)
  0x100003790: 0047a683 		lw  a3,4(a5)
  0x100003794: 00478793 		addi  a5,a5,4
  0x100003798: 00470713 		addi  a4,a4,4
  0x10000379c: 00d72023 		sw  a3,0(a4)
  0x1000037a0: fefb18e3 		bne  s6,a5,100003790 <bench_15pz_run+0x338>

328 Basic Block: (0x1000037a4, 0x100003854)
  0x1000037a4: 002c1793 		slli  a5,s8,0x2
  0x1000037a8: 01010713 		addi  a4,sp,16
  0x1000037ac: 00f13423 		sd  a5,8(sp)
  0x1000037b0: 09078793 		addi  a5,a5,144
  0x1000037b4: 00e786b3 		add  a3,a5,a4
  0x1000037b8: 001c8513 		addi  a0,s9,1
  0x1000037bc: 00a687b3 		add  a5,a3,a0
  0x1000037c0: f9478603 		lb  a2,-108(a5)
  0x1000037c4: 001c889b 		addiw  a7,s9,1
  0x1000037c8: 019685b3 		add  a1,a3,s9
  0x1000037cc: fff6079b 		addiw  a5,a2,-1
  0x1000037d0: 41f7d71b 		sraiw  a4,a5,0x1f
  0x1000037d4: 01e7571b 		srliw  a4,a4,0x1e
  0x1000037d8: 00e787bb 		addw  a5,a5,a4
  0x1000037dc: 0037f793 		andi  a5,a5,3
  0x1000037e0: 40e787bb 		subw  a5,a5,a4
  0x1000037e4: 4197873b 		subw  a4,a5,s9
  0x1000037e8: 411787bb 		subw  a5,a5,a7
  0x1000037ec: 41f75e1b 		sraiw  t3,a4,0x1f
  0x1000037f0: 41f7d31b 		sraiw  t1,a5,0x1f
  0x1000037f4: 00ee48b3 		xor  a7,t3,a4
  0x1000037f8: 00f347b3 		xor  a5,t1,a5
  0x1000037fc: 41c888bb 		subw  a7,a7,t3
  0x100003800: 406787bb 		subw  a5,a5,t1
  0x100003804: 40f888bb 		subw  a7,a7,a5
  0x100003808: 0ff57513 		zext.b  a0,a0
  0x10000380c: 01a888bb 		addw  a7,a7,s10
  0x100003810: fcc58223 		sb  a2,-60(a1)
  0x100003814: 00a686b3 		add  a3,a3,a0
  0x100003818: 001a831b 		addiw  t1,s5,1
  0x10000381c: 00448513 		addi  a0,s1,4
  0x100003820: 0188989b 		slliw  a7,a7,0x18
  0x100003824: fc068223 		sb  zero,-60(a3)
  0x100003828: 4188d89b 		sraiw  a7,a7,0x18
  0x10000382c: 0ff37313 		zext.b  t1,t1
  0x100003830: 00050613 		mv  a2,a0
  0x100003834: 01448e13 		addi  t3,s1,20
  0x100003838: 00000693 		li  a3,0
  0x10000383c: 7b500593 		li  a1,1973
  0x100003840: ffc60793 		addi  a5,a2,-4
  0x100003844: 02d586bb 		mulw  a3,a1,a3
  0x100003848: 00478703 		lb  a4,4(a5)
  0x10000384c: 00178793 		addi  a5,a5,1
  0x100003850: 00e686bb 		addw  a3,a3,a4
  0x100003854: fec798e3 		bne  a5,a2,100003844 <bench_15pz_run+0x3ec>

329 Basic Block: (0x100003844, 0x100003854)
  0x100003844: 02d586bb 		mulw  a3,a1,a3
  0x100003848: 00478703 		lb  a4,4(a5)
  0x10000384c: 00178793 		addi  a5,a5,1
  0x100003850: 00e686bb 		addw  a3,a3,a4
  0x100003854: fec798e3 		bne  a5,a2,100003844 <bench_15pz_run+0x3ec>

330 Basic Block: (0x100003858, 0x10000385c)
  0x100003858: 00478613 		addi  a2,a5,4
  0x10000385c: ffc612e3 		bne  a2,t3,100003840 <bench_15pz_run+0x3e8>

331 Basic Block: (0x100003840, 0x100003854)
  0x100003840: ffc60793 		addi  a5,a2,-4
  0x100003844: 02d586bb 		mulw  a3,a1,a3
  0x100003848: 00478703 		lb  a4,4(a5)
  0x10000384c: 00178793 		addi  a5,a5,1
  0x100003850: 00e686bb 		addw  a3,a3,a4
  0x100003854: fec798e3 		bne  a5,a2,100003844 <bench_15pz_run+0x3ec>

332 Basic Block: (0x100003860, 0x100003890)
  0x100003860: 00100793 		li  a5,1
  0x100003864: 04f10423 		sb  a5,72(sp)
  0x100003868: 04d12e23 		sw  a3,92(sp)
  0x10000386c: 053104a3 		sb  s3,73(sp)
  0x100003870: 04610523 		sb  t1,74(sp)
  0x100003874: 051105a3 		sb  a7,75(sp)
  0x100003878: 00482703 		lw  a4,4(a6)
  0x10000387c: 04810793 		addi  a5,sp,72
  0x100003880: 01048693 		addi  a3,s1,16
  0x100003884: 00e7a223 		sw  a4,4(a5)
  0x100003888: 00478793 		addi  a5,a5,4
  0x10000388c: 00050813 		mv  a6,a0
  0x100003890: 00d50e63 		beq  a0,a3,1000038ac <bench_15pz_run+0x454>

333 Basic Block: (0x100003894, 0x1000038a8)
  0x100003894: 00482703 		lw  a4,4(a6)
  0x100003898: 00450513 		addi  a0,a0,4
  0x10000389c: 00478793 		addi  a5,a5,4
  0x1000038a0: 00e7a023 		sw  a4,0(a5)
  0x1000038a4: 00050813 		mv  a6,a0
  0x1000038a8: fed516e3 		bne  a0,a3,100003894 <bench_15pz_run+0x43c>

334 Basic Block: (0x1000038ac, 0x1000038b8)
  0x1000038ac: 00843583 		ld  a1,8(s0)
  0x1000038b0: 00042503 		lw  a0,0(s0)
  0x1000038b4: 03010613 		addi  a2,sp,48
  0x1000038b8: ae1ff0ef 		jal  100003398 <_ZNK14Updatable_heapI8N_puzzleILi4EEE7pointerERKS1_.isra.0>

335 Basic Block: (0x1000033c0, 0x1000033c4)
  0x1000033c0: 01800313 		li  t1,24
  0x1000033c4: 00c0006f 		j  1000033d0 <_ZNK14Updatable_heapI8N_puzzleILi4EEE7pointerERKS1_.isra.0+0x38>

336 Basic Block: (0x1000033d0, 0x1000033d4)
  0x1000033d0: 00054783 		lbu  a5,0(a0)
  0x1000033d4: fe078ae3 		beqz  a5,1000033c8 <_ZNK14Updatable_heapI8N_puzzleILi4EEE7pointerERKS1_.isra.0+0x30>

337 Basic Block: (0x1000033d8, 0x1000033d8)
  0x1000033d8: fe0808e3 		beqz  a6,1000033c8 <_ZNK14Updatable_heapI8N_puzzleILi4EEE7pointerERKS1_.isra.0+0x30>

338 Basic Block: (0x1000033dc, 0x1000033e8)
  0x1000033dc: 01462883 		lw  a7,20(a2)
  0x1000033e0: 01452783 		lw  a5,20(a0)
  0x1000033e4: 00800713 		li  a4,8
  0x1000033e8: 03178063 		beq  a5,a7,100003408 <_ZNK14Updatable_heapI8N_puzzleILi4EEE7pointerERKS1_.isra.0+0x70>

339 Basic Block: (0x100003408, 0x100003420)
  0x100003408: ffc70793 		addi  a5,a4,-4
  0x10000340c: 00f505b3 		add  a1,a0,a5
  0x100003410: 00f606b3 		add  a3,a2,a5
  0x100003414: 0005c583 		lbu  a1,0(a1)
  0x100003418: 0006c683 		lbu  a3,0(a3)
  0x10000341c: 00178793 		addi  a5,a5,1
  0x100003420: fcd596e3 		bne  a1,a3,1000033ec <_ZNK14Updatable_heapI8N_puzzleILi4EEE7pointerERKS1_.isra.0+0x54>

340 Basic Block: (0x100003424, 0x100003424)
  0x100003424: fef714e3 		bne  a4,a5,10000340c <_ZNK14Updatable_heapI8N_puzzleILi4EEE7pointerERKS1_.isra.0+0x74>

341 Basic Block: (0x10000340c, 0x100003420)
  0x10000340c: 00f505b3 		add  a1,a0,a5
  0x100003410: 00f606b3 		add  a3,a2,a5
  0x100003414: 0005c583 		lbu  a1,0(a1)
  0x100003418: 0006c683 		lbu  a3,0(a3)
  0x10000341c: 00178793 		addi  a5,a5,1
  0x100003420: fcd596e3 		bne  a1,a3,1000033ec <_ZNK14Updatable_heapI8N_puzzleILi4EEE7pointerERKS1_.isra.0+0x54>

342 Basic Block: (0x100003428, 0x10000342c)
  0x100003428: 00470713 		addi  a4,a4,4
  0x10000342c: fc671ee3 		bne  a4,t1,100003408 <_ZNK14Updatable_heapI8N_puzzleILi4EEE7pointerERKS1_.isra.0+0x70>

343 Basic Block: (0x1000038bc, 0x1000038bc)
  0x1000038bc: 46050263 		beqz  a0,100003d20 <bench_15pz_run+0x8c8>

344 Basic Block: (0x1000038c0, 0x1000038d0)
  0x1000038c0: 02452603 		lw  a2,36(a0)
  0x1000038c4: 0016061b 		addiw  a2,a2,1
  0x1000038c8: 04810593 		addi  a1,sp,72
  0x1000038cc: 00040513 		mv  a0,s0
  0x1000038d0: 454010ef 		jal  100004d24 <_ZN14Updatable_heapI8N_puzzleILi4EEE4pushERKS1_i>

345 Basic Block: (0x100004ea0, 0x100004ebc)
  0x100004ea0: 02813083 		ld  ra,40(sp)
  0x100004ea4: 00e42e23 		sw  a4,28(s0)
  0x100004ea8: 02013403 		ld  s0,32(sp)
  0x100004eac: 01813483 		ld  s1,24(sp)
  0x100004eb0: 01013903 		ld  s2,16(sp)
  0x100004eb4: 00813983 		ld  s3,8(sp)
  0x100004eb8: 03010113 		addi  sp,sp,48
  0x100004ebc: 00008067 		ret

346 Basic Block: (0x1000038d4, 0x1000038d4)
  0x1000038d4: 2e0a9a63 		bnez  s5,100003bc8 <bench_15pz_run+0x770>

347 Basic Block: (0x1000038d8, 0x1000038dc)
  0x1000038d8: 00300793 		li  a5,3
  0x1000038dc: 18f98063 		beq  s3,a5,100003a5c <bench_15pz_run+0x604>

348 Basic Block: (0x1000038e0, 0x1000038fc)
  0x1000038e0: 00048813 		mv  a6,s1
  0x1000038e4: 00048713 		mv  a4,s1
  0x1000038e8: 03010793 		addi  a5,sp,48
  0x1000038ec: 0047a683 		lw  a3,4(a5)
  0x1000038f0: 00478793 		addi  a5,a5,4
  0x1000038f4: 00470713 		addi  a4,a4,4
  0x1000038f8: 00d72023 		sw  a3,0(a4)
  0x1000038fc: fefb18e3 		bne  s6,a5,1000038ec <bench_15pz_run+0x494>

349 Basic Block: (0x1000038ec, 0x1000038fc)
  0x1000038ec: 0047a683 		lw  a3,4(a5)
  0x1000038f0: 00478793 		addi  a5,a5,4
  0x1000038f4: 00470713 		addi  a4,a4,4
  0x1000038f8: 00d72023 		sw  a3,0(a4)
  0x1000038fc: fefb18e3 		bne  s6,a5,1000038ec <bench_15pz_run+0x494>

350 Basic Block: (0x100003900, 0x1000039c8)
  0x100003900: 001c0713 		addi  a4,s8,1
  0x100003904: 00271793 		slli  a5,a4,0x2
  0x100003908: 01010693 		addi  a3,sp,16
  0x10000390c: 09078793 		addi  a5,a5,144
  0x100003910: 00d787b3 		add  a5,a5,a3
  0x100003914: 019787b3 		add  a5,a5,s9
  0x100003918: f9478683 		lb  a3,-108(a5)
  0x10000391c: 0ff77613 		zext.b  a2,a4
  0x100003920: 001c059b 		addiw  a1,s8,1
  0x100003924: fff6871b 		addiw  a4,a3,-1
  0x100003928: 41f7579b 		sraiw  a5,a4,0x1f
  0x10000392c: 01e7d79b 		srliw  a5,a5,0x1e
  0x100003930: 00e787bb 		addw  a5,a5,a4
  0x100003934: 4027d79b 		sraiw  a5,a5,0x2
  0x100003938: 4187873b 		subw  a4,a5,s8
  0x10000393c: 40b787bb 		subw  a5,a5,a1
  0x100003940: 41f7551b 		sraiw  a0,a4,0x1f
  0x100003944: 41f7d59b 		sraiw  a1,a5,0x1f
  0x100003948: 00e548b3 		xor  a7,a0,a4
  0x10000394c: 00f5c7b3 		xor  a5,a1,a5
  0x100003950: 40b787bb 		subw  a5,a5,a1
  0x100003954: 40a888bb 		subw  a7,a7,a0
  0x100003958: 40f888bb 		subw  a7,a7,a5
  0x10000395c: 00813783 		ld  a5,8(sp)
  0x100003960: 00261713 		slli  a4,a2,0x2
  0x100003964: 01010613 		addi  a2,sp,16
  0x100003968: 09078793 		addi  a5,a5,144
  0x10000396c: 00c78633 		add  a2,a5,a2
  0x100003970: 09070793 		addi  a5,a4,144
  0x100003974: 01010713 		addi  a4,sp,16
  0x100003978: 01960633 		add  a2,a2,s9
  0x10000397c: 00e787b3 		add  a5,a5,a4
  0x100003980: 01a888bb 		addw  a7,a7,s10
  0x100003984: fcd60223 		sb  a3,-60(a2)
  0x100003988: 0019831b 		addiw  t1,s3,1
  0x10000398c: 019787b3 		add  a5,a5,s9
  0x100003990: 00448513 		addi  a0,s1,4
  0x100003994: 0188989b 		slliw  a7,a7,0x18
  0x100003998: 4188d89b 		sraiw  a7,a7,0x18
  0x10000399c: 0ff37313 		zext.b  t1,t1
  0x1000039a0: fc078223 		sb  zero,-60(a5)
  0x1000039a4: 00050613 		mv  a2,a0
  0x1000039a8: 01448e13 		addi  t3,s1,20
  0x1000039ac: 00000693 		li  a3,0
  0x1000039b0: 7b500593 		li  a1,1973
  0x1000039b4: ffc60793 		addi  a5,a2,-4
  0x1000039b8: 02d586bb 		mulw  a3,a1,a3
  0x1000039bc: 00478703 		lb  a4,4(a5)
  0x1000039c0: 00178793 		addi  a5,a5,1
  0x1000039c4: 00e686bb 		addw  a3,a3,a4
  0x1000039c8: fef618e3 		bne  a2,a5,1000039b8 <bench_15pz_run+0x560>

351 Basic Block: (0x1000039b8, 0x1000039c8)
  0x1000039b8: 02d586bb 		mulw  a3,a1,a3
  0x1000039bc: 00478703 		lb  a4,4(a5)
  0x1000039c0: 00178793 		addi  a5,a5,1
  0x1000039c4: 00e686bb 		addw  a3,a3,a4
  0x1000039c8: fef618e3 		bne  a2,a5,1000039b8 <bench_15pz_run+0x560>

352 Basic Block: (0x1000039cc, 0x1000039d0)
  0x1000039cc: 00460613 		addi  a2,a2,4
  0x1000039d0: ffc612e3 		bne  a2,t3,1000039b4 <bench_15pz_run+0x55c>

353 Basic Block: (0x1000039b4, 0x1000039c8)
  0x1000039b4: ffc60793 		addi  a5,a2,-4
  0x1000039b8: 02d586bb 		mulw  a3,a1,a3
  0x1000039bc: 00478703 		lb  a4,4(a5)
  0x1000039c0: 00178793 		addi  a5,a5,1
  0x1000039c4: 00e686bb 		addw  a3,a3,a4
  0x1000039c8: fef618e3 		bne  a2,a5,1000039b8 <bench_15pz_run+0x560>

354 Basic Block: (0x1000039d4, 0x100003a04)
  0x1000039d4: 00100793 		li  a5,1
  0x1000039d8: 04f10423 		sb  a5,72(sp)
  0x1000039dc: 04d12e23 		sw  a3,92(sp)
  0x1000039e0: 046104a3 		sb  t1,73(sp)
  0x1000039e4: 05510523 		sb  s5,74(sp)
  0x1000039e8: 051105a3 		sb  a7,75(sp)
  0x1000039ec: 00482703 		lw  a4,4(a6)
  0x1000039f0: 04810793 		addi  a5,sp,72
  0x1000039f4: 01048693 		addi  a3,s1,16
  0x1000039f8: 00e7a223 		sw  a4,4(a5)
  0x1000039fc: 00478793 		addi  a5,a5,4
  0x100003a00: 00050813 		mv  a6,a0
  0x100003a04: 00a68e63 		beq  a3,a0,100003a20 <bench_15pz_run+0x5c8>

355 Basic Block: (0x100003a08, 0x100003a1c)
  0x100003a08: 00482703 		lw  a4,4(a6)
  0x100003a0c: 00450513 		addi  a0,a0,4
  0x100003a10: 00478793 		addi  a5,a5,4
  0x100003a14: 00e7a023 		sw  a4,0(a5)
  0x100003a18: 00050813 		mv  a6,a0
  0x100003a1c: fea696e3 		bne  a3,a0,100003a08 <bench_15pz_run+0x5b0>

356 Basic Block: (0x100003a20, 0x100003a2c)
  0x100003a20: 00843583 		ld  a1,8(s0)
  0x100003a24: 00042503 		lw  a0,0(s0)
  0x100003a28: 03010613 		addi  a2,sp,48
  0x100003a2c: 96dff0ef 		jal  100003398 <_ZNK14Updatable_heapI8N_puzzleILi4EEE7pointerERKS1_.isra.0>

357 Basic Block: (0x100003a30, 0x100003a30)
  0x100003a30: 2e050c63 		beqz  a0,100003d28 <bench_15pz_run+0x8d0>

358 Basic Block: (0x100003a34, 0x100003a44)
  0x100003a34: 02452603 		lw  a2,36(a0)
  0x100003a38: 0016061b 		addiw  a2,a2,1
  0x100003a3c: 04810593 		addi  a1,sp,72
  0x100003a40: 00040513 		mv  a0,s0
  0x100003a44: 2e0010ef 		jal  100004d24 <_ZN14Updatable_heapI8N_puzzleILi4EEE4pushERKS1_i>

359 Basic Block: (0x100004cbc, 0x100004cd4)
  0x100004cbc: 01053803 		ld  a6,16(a0)
  0x100004cc0: 00359793 		slli  a5,a1,0x3
  0x100004cc4: 00100e93 		li  t4,1
  0x100004cc8: 00f807b3 		add  a5,a6,a5
  0x100004ccc: 0007b883 		ld  a7,0(a5)
  0x100004cd0: 0288ae03 		lw  t3,40(a7)
  0x100004cd4: 01c0006f 		j  100004cf0 <_ZN14Updatable_heapI8N_puzzleILi4EEE12percolate_upEi+0x3c>

360 Basic Block: (0x100004cf0, 0x100004d1c)
  0x100004cf0: 01f5d79b 		srliw  a5,a1,0x1f
  0x100004cf4: 00b787bb 		addw  a5,a5,a1
  0x100004cf8: 4017d79b 		sraiw  a5,a5,0x1
  0x100004cfc: 00058613 		mv  a2,a1
  0x100004d00: 0007859b 		sext.w  a1,a5
  0x100004d04: 00359713 		slli  a4,a1,0x3
  0x100004d08: 00e80733 		add  a4,a6,a4
  0x100004d0c: 00073503 		ld  a0,0(a4)
  0x100004d10: 00361693 		slli  a3,a2,0x3
  0x100004d14: 00d806b3 		add  a3,a6,a3
  0x100004d18: 02852303 		lw  t1,40(a0)
  0x100004d1c: fa6e4ee3 		blt  t3,t1,100004cd8 <_ZN14Updatable_heapI8N_puzzleILi4EEE12percolate_upEi+0x24>

361 Basic Block: (0x100003a48, 0x100003a48)
  0x100003a48: 00099a63 		bnez  s3,100003a5c <bench_15pz_run+0x604>

362 Basic Block: (0x100003a4c, 0x100003a50)
  0x100003a4c: 01842603 		lw  a2,24(s0)
  0x100003a50: c8060ce3 		beqz  a2,1000036e8 <bench_15pz_run+0x290>

363 Basic Block: (0x100003a54, 0x100003a54)
  0x100003a54: b52d90e3 		bne  s11,s2,100003594 <bench_15pz_run+0x13c>

364 Basic Block: (0x100003594, 0x1000035d8)
  0x100003594: 01043803 		ld  a6,16(s0)
  0x100003598: 00048c13 		mv  s8,s1
  0x10000359c: 00048693 		mv  a3,s1
  0x1000035a0: 00883703 		ld  a4,8(a6)
  0x1000035a4: 00370783 		lb  a5,3(a4)
  0x1000035a8: 00074c83 		lbu  s9,0(a4)
  0x1000035ac: 00174983 		lbu  s3,1(a4)
  0x1000035b0: 00274a83 		lbu  s5,2(a4)
  0x1000035b4: 00072a03 		lw  s4,0(a4)
  0x1000035b8: 01472d03 		lw  s10,20(a4)
  0x1000035bc: 00f13423 		sd  a5,8(sp)
  0x1000035c0: 00470793 		addi  a5,a4,4
  0x1000035c4: 01470713 		addi  a4,a4,20
  0x1000035c8: 0007a583 		lw  a1,0(a5)
  0x1000035cc: 00478793 		addi  a5,a5,4
  0x1000035d0: 00468693 		addi  a3,a3,4
  0x1000035d4: 00b6a023 		sw  a1,0(a3)
  0x1000035d8: fee798e3 		bne  a5,a4,1000035c8 <bench_15pz_run+0x170>

365 Basic Block: (0x1000035e4, 0x1000035e8)
  0x1000035e4: 00100793 		li  a5,1
  0x1000035e8: 00c7dce3 		bge  a5,a2,100003e00 <bench_15pz_run+0x9a8>

366 Basic Block: (0x1000035ec, 0x100003610)
  0x1000035ec: 00361793 		slli  a5,a2,0x3
  0x1000035f0: 00f807b3 		add  a5,a6,a5
  0x1000035f4: 0007b783 		ld  a5,0(a5)
  0x1000035f8: 00100713 		li  a4,1
  0x1000035fc: fff6061b 		addiw  a2,a2,-1
  0x100003600: 00f83423 		sd  a5,8(a6)
  0x100003604: 02e7a023 		sw  a4,32(a5)
  0x100003608: 00040513 		mv  a0,s0
  0x10000360c: 00c42c23 		sw  a2,24(s0)
  0x100003610: 115010ef 		jal  100004f24 <_ZN14Updatable_heapI8N_puzzleILi4EEE14percolate_downEv>

367 Basic Block: (0x100004f24, 0x100004f2c)
  0x100004f24: 01852383 		lw  t2,24(a0)
  0x100004f28: 00200793 		li  a5,2
  0x100004f2c: 0c77da63 		bge  a5,t2,100005000 <_ZN14Updatable_heapI8N_puzzleILi4EEE14percolate_downEv+0xdc>

368 Basic Block: (0x100005000, 0x100005008)
  0x100005000: 00200713 		li  a4,2
  0x100005004: 00100613 		li  a2,1
  0x100005008: f8e39ce3 		bne  t2,a4,100004fa0 <_ZN14Updatable_heapI8N_puzzleILi4EEE14percolate_downEv+0x7c>

369 Basic Block: (0x100004fa0, 0x100004fa0)
  0x100004fa0: 00008067 		ret

370 Basic Block: (0x100003bc8, 0x100003be4)
  0x100003bc8: 00048813 		mv  a6,s1
  0x100003bcc: 00048713 		mv  a4,s1
  0x100003bd0: 03010793 		addi  a5,sp,48
  0x100003bd4: 0047a683 		lw  a3,4(a5)
  0x100003bd8: 00478793 		addi  a5,a5,4
  0x100003bdc: 00470713 		addi  a4,a4,4
  0x100003be0: 00d72023 		sw  a3,0(a4)
  0x100003be4: ff6798e3 		bne  a5,s6,100003bd4 <bench_15pz_run+0x77c>

371 Basic Block: (0x100003bd4, 0x100003be4)
  0x100003bd4: 0047a683 		lw  a3,4(a5)
  0x100003bd8: 00478793 		addi  a5,a5,4
  0x100003bdc: 00470713 		addi  a4,a4,4
  0x100003be0: 00d72023 		sw  a3,0(a4)
  0x100003be4: ff6798e3 		bne  a5,s6,100003bd4 <bench_15pz_run+0x77c>

372 Basic Block: (0x100003be8, 0x100003c94)
  0x100003be8: 00813703 		ld  a4,8(sp)
  0x100003bec: 01010693 		addi  a3,sp,16
  0x100003bf0: fffc879b 		addiw  a5,s9,-1
  0x100003bf4: 09070713 		addi  a4,a4,144
  0x100003bf8: 00d706b3 		add  a3,a4,a3
  0x100003bfc: 00078893 		mv  a7,a5
  0x100003c00: 00f687b3 		add  a5,a3,a5
  0x100003c04: f9478603 		lb  a2,-108(a5)
  0x100003c08: fffa851b 		addiw  a0,s5,-1
  0x100003c0c: 019685b3 		add  a1,a3,s9
  0x100003c10: fff6079b 		addiw  a5,a2,-1
  0x100003c14: 41f7d71b 		sraiw  a4,a5,0x1f
  0x100003c18: 01e7571b 		srliw  a4,a4,0x1e
  0x100003c1c: 00e787bb 		addw  a5,a5,a4
  0x100003c20: 0037f793 		andi  a5,a5,3
  0x100003c24: 40e787bb 		subw  a5,a5,a4
  0x100003c28: 4197873b 		subw  a4,a5,s9
  0x100003c2c: 411787bb 		subw  a5,a5,a7
  0x100003c30: 41f75e1b 		sraiw  t3,a4,0x1f
  0x100003c34: 41f7d31b 		sraiw  t1,a5,0x1f
  0x100003c38: 00ee48b3 		xor  a7,t3,a4
  0x100003c3c: 00f347b3 		xor  a5,t1,a5
  0x100003c40: 41c888bb 		subw  a7,a7,t3
  0x100003c44: 406787bb 		subw  a5,a5,t1
  0x100003c48: 40f888bb 		subw  a7,a7,a5
  0x100003c4c: 0ff57713 		zext.b  a4,a0
  0x100003c50: 01a888bb 		addw  a7,a7,s10
  0x100003c54: fcc58223 		sb  a2,-60(a1)
  0x100003c58: 00e686b3 		add  a3,a3,a4
  0x100003c5c: 00448513 		addi  a0,s1,4
  0x100003c60: 0188989b 		slliw  a7,a7,0x18
  0x100003c64: fc068223 		sb  zero,-60(a3)
  0x100003c68: 4188d89b 		sraiw  a7,a7,0x18
  0x100003c6c: 00070313 		mv  t1,a4
  0x100003c70: 00050613 		mv  a2,a0
  0x100003c74: 01448e13 		addi  t3,s1,20
  0x100003c78: 00000693 		li  a3,0
  0x100003c7c: 7b500593 		li  a1,1973
  0x100003c80: ffc60793 		addi  a5,a2,-4
  0x100003c84: 02d586bb 		mulw  a3,a1,a3
  0x100003c88: 00478703 		lb  a4,4(a5)
  0x100003c8c: 00178793 		addi  a5,a5,1
  0x100003c90: 00e686bb 		addw  a3,a3,a4
  0x100003c94: fec798e3 		bne  a5,a2,100003c84 <bench_15pz_run+0x82c>

373 Basic Block: (0x100003c84, 0x100003c94)
  0x100003c84: 02d586bb 		mulw  a3,a1,a3
  0x100003c88: 00478703 		lb  a4,4(a5)
  0x100003c8c: 00178793 		addi  a5,a5,1
  0x100003c90: 00e686bb 		addw  a3,a3,a4
  0x100003c94: fec798e3 		bne  a5,a2,100003c84 <bench_15pz_run+0x82c>

374 Basic Block: (0x100003c98, 0x100003c9c)
  0x100003c98: 00478613 		addi  a2,a5,4
  0x100003c9c: ffc612e3 		bne  a2,t3,100003c80 <bench_15pz_run+0x828>

375 Basic Block: (0x100003c80, 0x100003c94)
  0x100003c80: ffc60793 		addi  a5,a2,-4
  0x100003c84: 02d586bb 		mulw  a3,a1,a3
  0x100003c88: 00478703 		lb  a4,4(a5)
  0x100003c8c: 00178793 		addi  a5,a5,1
  0x100003c90: 00e686bb 		addw  a3,a3,a4
  0x100003c94: fec798e3 		bne  a5,a2,100003c84 <bench_15pz_run+0x82c>

376 Basic Block: (0x100003ca0, 0x100003cd0)
  0x100003ca0: 00100793 		li  a5,1
  0x100003ca4: 04f10423 		sb  a5,72(sp)
  0x100003ca8: 04d12e23 		sw  a3,92(sp)
  0x100003cac: 053104a3 		sb  s3,73(sp)
  0x100003cb0: 04610523 		sb  t1,74(sp)
  0x100003cb4: 051105a3 		sb  a7,75(sp)
  0x100003cb8: 00482703 		lw  a4,4(a6)
  0x100003cbc: 04810793 		addi  a5,sp,72
  0x100003cc0: 01048693 		addi  a3,s1,16
  0x100003cc4: 00e7a223 		sw  a4,4(a5)
  0x100003cc8: 00478793 		addi  a5,a5,4
  0x100003ccc: 00050813 		mv  a6,a0
  0x100003cd0: 00a68e63 		beq  a3,a0,100003cec <bench_15pz_run+0x894>

377 Basic Block: (0x100003cd4, 0x100003ce8)
  0x100003cd4: 00482703 		lw  a4,4(a6)
  0x100003cd8: 00450513 		addi  a0,a0,4
  0x100003cdc: 00478793 		addi  a5,a5,4
  0x100003ce0: 00e7a023 		sw  a4,0(a5)
  0x100003ce4: 00050813 		mv  a6,a0
  0x100003ce8: fea696e3 		bne  a3,a0,100003cd4 <bench_15pz_run+0x87c>

378 Basic Block: (0x100003cec, 0x100003cf8)
  0x100003cec: 00843583 		ld  a1,8(s0)
  0x100003cf0: 00042503 		lw  a0,0(s0)
  0x100003cf4: 03010613 		addi  a2,sp,48
  0x100003cf8: ea0ff0ef 		jal  100003398 <_ZNK14Updatable_heapI8N_puzzleILi4EEE7pointerERKS1_.isra.0>

379 Basic Block: (0x100003cfc, 0x100003cfc)
  0x100003cfc: 02050a63 		beqz  a0,100003d30 <bench_15pz_run+0x8d8>

380 Basic Block: (0x100003d00, 0x100003d10)
  0x100003d00: 02452603 		lw  a2,36(a0)
  0x100003d04: 0016061b 		addiw  a2,a2,1
  0x100003d08: 04810593 		addi  a1,sp,72
  0x100003d0c: 00040513 		mv  a0,s0
  0x100003d10: 014010ef 		jal  100004d24 <_ZN14Updatable_heapI8N_puzzleILi4EEE4pushERKS1_i>

381 Basic Block: (0x100004d60, 0x100004d64)
  0x100004d60: 02c54783 		lbu  a5,44(a0)
  0x100004d64: 02079063 		bnez  a5,100004d84 <_ZN14Updatable_heapI8N_puzzleILi4EEE4pushERKS1_i+0x60>

382 Basic Block: (0x100004d68, 0x100004d70)
  0x100004d68: 00054703 		lbu  a4,0(a0)
  0x100004d6c: 04000793 		li  a5,64
  0x100004d70: 00070463 		beqz  a4,100004d78 <_ZN14Updatable_heapI8N_puzzleILi4EEE4pushERKS1_i+0x54>

383 Basic Block: (0x100004d74, 0x100004d80)
  0x100004d74: 00350783 		lb  a5,3(a0)
  0x100004d78: 02852703 		lw  a4,40(a0)
  0x100004d7c: 00f907bb 		addw  a5,s2,a5
  0x100004d80: 14e7c463 		blt  a5,a4,100004ec8 <_ZN14Updatable_heapI8N_puzzleILi4EEE4pushERKS1_i+0x1a4>

384 Basic Block: (0x100004d84, 0x100004d9c)
  0x100004d84: 02813083 		ld  ra,40(sp)
  0x100004d88: 02013403 		ld  s0,32(sp)
  0x100004d8c: 01813483 		ld  s1,24(sp)
  0x100004d90: 01013903 		ld  s2,16(sp)
  0x100004d94: 00813983 		ld  s3,8(sp)
  0x100004d98: 03010113 		addi  sp,sp,48
  0x100004d9c: 00008067 		ret

385 Basic Block: (0x100003d14, 0x100003d14)
  0x100003d14: bc5ff06f 		j  1000038d8 <bench_15pz_run+0x480>

386 Basic Block: (0x10000500c, 0x10000500c)
  0x10000500c: fb5ff06f 		j  100004fc0 <_ZN14Updatable_heapI8N_puzzleILi4EEE14percolate_downEv+0x9c>

387 Basic Block: (0x100004fc0, 0x100004fe4)
  0x100004fc0: 01053703 		ld  a4,16(a0)
  0x100004fc4: 00361693 		slli  a3,a2,0x3
  0x100004fc8: 00339793 		slli  a5,t2,0x3
  0x100004fcc: 00f707b3 		add  a5,a4,a5
  0x100004fd0: 00d70733 		add  a4,a4,a3
  0x100004fd4: 00073583 		ld  a1,0(a4)
  0x100004fd8: 0007b683 		ld  a3,0(a5)
  0x100004fdc: 0285a503 		lw  a0,40(a1)
  0x100004fe0: 0286a803 		lw  a6,40(a3)
  0x100004fe4: faa85ee3 		bge  a6,a0,100004fa0 <_ZN14Updatable_heapI8N_puzzleILi4EEE14percolate_downEv+0x7c>

388 Basic Block: (0x100004cd8, 0x100004cec)
  0x100004cd8: 00a6b023 		sd  a0,0(a3)
  0x100004cdc: 01173023 		sd  a7,0(a4)
  0x100004ce0: 0006b703 		ld  a4,0(a3)
  0x100004ce4: 02f8a023 		sw  a5,32(a7)
  0x100004ce8: 02c72023 		sw  a2,32(a4)
  0x100004cec: 03d58a63 		beq  a1,t4,100004d20 <_ZN14Updatable_heapI8N_puzzleILi4EEE12percolate_upEi+0x6c>

389 Basic Block: (0x100003a5c, 0x100003a74)
  0x100003a5c: 00048813 		mv  a6,s1
  0x100003a60: 00048793 		mv  a5,s1
  0x100003a64: 004a2703 		lw  a4,4(s4)
  0x100003a68: 004a0a13 		addi  s4,s4,4
  0x100003a6c: 00478793 		addi  a5,a5,4
  0x100003a70: 00e7a023 		sw  a4,0(a5)
  0x100003a74: ff6a18e3 		bne  s4,s6,100003a64 <bench_15pz_run+0x60c>

390 Basic Block: (0x100003a64, 0x100003a74)
  0x100003a64: 004a2703 		lw  a4,4(s4)
  0x100003a68: 004a0a13 		addi  s4,s4,4
  0x100003a6c: 00478793 		addi  a5,a5,4
  0x100003a70: 00e7a023 		sw  a4,0(a5)
  0x100003a74: ff6a18e3 		bne  s4,s6,100003a64 <bench_15pz_run+0x60c>

391 Basic Block: (0x100003a78, 0x100003b3c)
  0x100003a78: fffc079b 		addiw  a5,s8,-1
  0x100003a7c: 00078613 		mv  a2,a5
  0x100003a80: 00279793 		slli  a5,a5,0x2
  0x100003a84: 01010713 		addi  a4,sp,16
  0x100003a88: 09078793 		addi  a5,a5,144
  0x100003a8c: 00e787b3 		add  a5,a5,a4
  0x100003a90: 019787b3 		add  a5,a5,s9
  0x100003a94: f9478703 		lb  a4,-108(a5)
  0x100003a98: fff9899b 		addiw  s3,s3,-1
  0x100003a9c: 0ff9f693 		zext.b  a3,s3
  0x100003aa0: fff7059b 		addiw  a1,a4,-1
  0x100003aa4: 41f5d79b 		sraiw  a5,a1,0x1f
  0x100003aa8: 01e7d79b 		srliw  a5,a5,0x1e
  0x100003aac: 00b787bb 		addw  a5,a5,a1
  0x100003ab0: 4027d79b 		sraiw  a5,a5,0x2
  0x100003ab4: 41878c3b 		subw  s8,a5,s8
  0x100003ab8: 40c787bb 		subw  a5,a5,a2
  0x100003abc: 41f7d61b 		sraiw  a2,a5,0x1f
  0x100003ac0: 00f647b3 		xor  a5,a2,a5
  0x100003ac4: 40c787bb 		subw  a5,a5,a2
  0x100003ac8: 00813603 		ld  a2,8(sp)
  0x100003acc: 41fc559b 		sraiw  a1,s8,0x1f
  0x100003ad0: 0185c8b3 		xor  a7,a1,s8
  0x100003ad4: 40b888bb 		subw  a7,a7,a1
  0x100003ad8: 00269693 		slli  a3,a3,0x2
  0x100003adc: 01010593 		addi  a1,sp,16
  0x100003ae0: 09060613 		addi  a2,a2,144
  0x100003ae4: 00b60633 		add  a2,a2,a1
  0x100003ae8: 40f888bb 		subw  a7,a7,a5
  0x100003aec: 09068793 		addi  a5,a3,144
  0x100003af0: 01960633 		add  a2,a2,s9
  0x100003af4: 00b787b3 		add  a5,a5,a1
  0x100003af8: 01a888bb 		addw  a7,a7,s10
  0x100003afc: fce60223 		sb  a4,-60(a2)
  0x100003b00: 019787b3 		add  a5,a5,s9
  0x100003b04: 00448513 		addi  a0,s1,4
  0x100003b08: 0188989b 		slliw  a7,a7,0x18
  0x100003b0c: 4188d89b 		sraiw  a7,a7,0x18
  0x100003b10: 0ff9f993 		zext.b  s3,s3
  0x100003b14: fc078223 		sb  zero,-60(a5)
  0x100003b18: 00050613 		mv  a2,a0
  0x100003b1c: 01448313 		addi  t1,s1,20
  0x100003b20: 00000693 		li  a3,0
  0x100003b24: 7b500593 		li  a1,1973
  0x100003b28: ffc60793 		addi  a5,a2,-4
  0x100003b2c: 02d586bb 		mulw  a3,a1,a3
  0x100003b30: 00478703 		lb  a4,4(a5)
  0x100003b34: 00178793 		addi  a5,a5,1
  0x100003b38: 00e686bb 		addw  a3,a3,a4
  0x100003b3c: fec798e3 		bne  a5,a2,100003b2c <bench_15pz_run+0x6d4>

392 Basic Block: (0x100003b2c, 0x100003b3c)
  0x100003b2c: 02d586bb 		mulw  a3,a1,a3
  0x100003b30: 00478703 		lb  a4,4(a5)
  0x100003b34: 00178793 		addi  a5,a5,1
  0x100003b38: 00e686bb 		addw  a3,a3,a4
  0x100003b3c: fec798e3 		bne  a5,a2,100003b2c <bench_15pz_run+0x6d4>

393 Basic Block: (0x100003b40, 0x100003b44)
  0x100003b40: 00478613 		addi  a2,a5,4
  0x100003b44: fec312e3 		bne  t1,a2,100003b28 <bench_15pz_run+0x6d0>

394 Basic Block: (0x100003b28, 0x100003b3c)
  0x100003b28: ffc60793 		addi  a5,a2,-4
  0x100003b2c: 02d586bb 		mulw  a3,a1,a3
  0x100003b30: 00478703 		lb  a4,4(a5)
  0x100003b34: 00178793 		addi  a5,a5,1
  0x100003b38: 00e686bb 		addw  a3,a3,a4
  0x100003b3c: fec798e3 		bne  a5,a2,100003b2c <bench_15pz_run+0x6d4>

395 Basic Block: (0x100003b48, 0x100003b78)
  0x100003b48: 00100793 		li  a5,1
  0x100003b4c: 04f10423 		sb  a5,72(sp)
  0x100003b50: 04d12e23 		sw  a3,92(sp)
  0x100003b54: 053104a3 		sb  s3,73(sp)
  0x100003b58: 05510523 		sb  s5,74(sp)
  0x100003b5c: 051105a3 		sb  a7,75(sp)
  0x100003b60: 00482703 		lw  a4,4(a6)
  0x100003b64: 04810793 		addi  a5,sp,72
  0x100003b68: 01048693 		addi  a3,s1,16
  0x100003b6c: 00e7a223 		sw  a4,4(a5)
  0x100003b70: 00478793 		addi  a5,a5,4
  0x100003b74: 00050813 		mv  a6,a0
  0x100003b78: 00d50e63 		beq  a0,a3,100003b94 <bench_15pz_run+0x73c>

396 Basic Block: (0x100003b7c, 0x100003b90)
  0x100003b7c: 00482703 		lw  a4,4(a6)
  0x100003b80: 00450513 		addi  a0,a0,4
  0x100003b84: 00478793 		addi  a5,a5,4
  0x100003b88: 00e7a023 		sw  a4,0(a5)
  0x100003b8c: 00050813 		mv  a6,a0
  0x100003b90: fed516e3 		bne  a0,a3,100003b7c <bench_15pz_run+0x724>

397 Basic Block: (0x100003b94, 0x100003ba0)
  0x100003b94: 00843583 		ld  a1,8(s0)
  0x100003b98: 00042503 		lw  a0,0(s0)
  0x100003b9c: 03010613 		addi  a2,sp,48
  0x100003ba0: ff8ff0ef 		jal  100003398 <_ZNK14Updatable_heapI8N_puzzleILi4EEE7pointerERKS1_.isra.0>

398 Basic Block: (0x100003ba4, 0x100003ba4)
  0x100003ba4: 18050a63 		beqz  a0,100003d38 <bench_15pz_run+0x8e0>

399 Basic Block: (0x100003ba8, 0x100003bb8)
  0x100003ba8: 02452603 		lw  a2,36(a0)
  0x100003bac: 0016061b 		addiw  a2,a2,1
  0x100003bb0: 04810593 		addi  a1,sp,72
  0x100003bb4: 00040513 		mv  a0,s0
  0x100003bb8: 16c010ef 		jal  100004d24 <_ZN14Updatable_heapI8N_puzzleILi4EEE4pushERKS1_i>

400 Basic Block: (0x100003bbc, 0x100003bbc)
  0x100003bbc: e91ff06f 		j  100003a4c <bench_15pz_run+0x5f4>

401 Basic Block: (0x100004f30, 0x100004f70)
  0x100004f30: 01053583 		ld  a1,16(a0)
  0x100004f34: 00100613 		li  a2,1
  0x100004f38: 00200713 		li  a4,2
  0x100004f3c: 00371793 		slli  a5,a4,0x3
  0x100004f40: 00361693 		slli  a3,a2,0x3
  0x100004f44: 00f58eb3 		add  t4,a1,a5
  0x100004f48: 00d586b3 		add  a3,a1,a3
  0x100004f4c: 0006b303 		ld  t1,0(a3)
  0x100004f50: 000ebe03 		ld  t3,0(t4)
  0x100004f54: 00878793 		addi  a5,a5,8
  0x100004f58: 00f587b3 		add  a5,a1,a5
  0x100004f5c: 0007b883 		ld  a7,0(a5)
  0x100004f60: 02832f03 		lw  t5,40(t1)
  0x100004f64: 028e2803 		lw  a6,40(t3)
  0x100004f68: 0288af83 		lw  t6,40(a7)
  0x100004f6c: 0017029b 		addiw  t0,a4,1
  0x100004f70: 010f5463 		bge  t5,a6,100004f78 <_ZN14Updatable_heapI8N_puzzleILi4EEE14percolate_downEv+0x54>

402 Basic Block: (0x100004f78, 0x100004f78)
  0x100004f78: 03f85663 		bge  a6,t6,100004fa4 <_ZN14Updatable_heapI8N_puzzleILi4EEE14percolate_downEv+0x80>

403 Basic Block: (0x100004fa4, 0x100004fbc)
  0x100004fa4: 0067b023 		sd  t1,0(a5)
  0x100004fa8: 0116b023 		sd  a7,0(a3)
  0x100004fac: 0007b783 		ld  a5,0(a5)
  0x100004fb0: 02c8a023 		sw  a2,32(a7)
  0x100004fb4: 0002861b 		sext.w  a2,t0
  0x100004fb8: 0257a023 		sw  t0,32(a5)
  0x100004fbc: fd9ff06f 		j  100004f94 <_ZN14Updatable_heapI8N_puzzleILi4EEE14percolate_downEv+0x70>

404 Basic Block: (0x100004f94, 0x100004f98)
  0x100004f94: 0016171b 		slliw  a4,a2,0x1
  0x100004f98: fa7742e3 		blt  a4,t2,100004f3c <_ZN14Updatable_heapI8N_puzzleILi4EEE14percolate_downEv+0x18>

405 Basic Block: (0x100004f9c, 0x100004f9c)
  0x100004f9c: 02e38263 		beq  t2,a4,100004fc0 <_ZN14Updatable_heapI8N_puzzleILi4EEE14percolate_downEv+0x9c>

406 Basic Block: (0x100004f7c, 0x100004f98)
  0x100004f7c: 006eb023 		sd  t1,0(t4)
  0x100004f80: 01c6b023 		sd  t3,0(a3)
  0x100004f84: 000eb783 		ld  a5,0(t4)
  0x100004f88: 02ce2023 		sw  a2,32(t3)
  0x100004f8c: 00070613 		mv  a2,a4
  0x100004f90: 02e7a023 		sw  a4,32(a5)
  0x100004f94: 0016171b 		slliw  a4,a2,0x1
  0x100004f98: fa7742e3 		blt  a4,t2,100004f3c <_ZN14Updatable_heapI8N_puzzleILi4EEE14percolate_downEv+0x18>

407 Basic Block: (0x100004f3c, 0x100004f70)
  0x100004f3c: 00371793 		slli  a5,a4,0x3
  0x100004f40: 00361693 		slli  a3,a2,0x3
  0x100004f44: 00f58eb3 		add  t4,a1,a5
  0x100004f48: 00d586b3 		add  a3,a1,a3
  0x100004f4c: 0006b303 		ld  t1,0(a3)
  0x100004f50: 000ebe03 		ld  t3,0(t4)
  0x100004f54: 00878793 		addi  a5,a5,8
  0x100004f58: 00f587b3 		add  a5,a1,a5
  0x100004f5c: 0007b883 		ld  a7,0(a5)
  0x100004f60: 02832f03 		lw  t5,40(t1)
  0x100004f64: 028e2803 		lw  a6,40(t3)
  0x100004f68: 0288af83 		lw  t6,40(a7)
  0x100004f6c: 0017029b 		addiw  t0,a4,1
  0x100004f70: 010f5463 		bge  t5,a6,100004f78 <_ZN14Updatable_heapI8N_puzzleILi4EEE14percolate_downEv+0x54>

408 Basic Block: (0x100003bc0, 0x100003be4)
  0x100003bc0: 002c1793 		slli  a5,s8,0x2
  0x100003bc4: 00f13423 		sd  a5,8(sp)
  0x100003bc8: 00048813 		mv  a6,s1
  0x100003bcc: 00048713 		mv  a4,s1
  0x100003bd0: 03010793 		addi  a5,sp,48
  0x100003bd4: 0047a683 		lw  a3,4(a5)
  0x100003bd8: 00478793 		addi  a5,a5,4
  0x100003bdc: 00470713 		addi  a4,a4,4
  0x100003be0: 00d72023 		sw  a3,0(a4)
  0x100003be4: ff6798e3 		bne  a5,s6,100003bd4 <bench_15pz_run+0x77c>

409 Basic Block: (0x100003b3c, 0x100003b3c)
  0x100003b3c: fec798e3 		bne  a5,a2,100003b2c <bench_15pz_run+0x6d4>

410 Basic Block: (0x100004f74, 0x100004f74)
  0x100004f74: 03ff4663 		blt  t5,t6,100004fa0 <_ZN14Updatable_heapI8N_puzzleILi4EEE14percolate_downEv+0x7c>

411 Basic Block: (0x1000033ec, 0x1000033f0)
  0x1000033ec: 01853503 		ld  a0,24(a0)
  0x1000033f0: 04050063 		beqz  a0,100003430 <_ZNK14Updatable_heapI8N_puzzleILi4EEE7pointerERKS1_.isra.0+0x98>

412 Basic Block: (0x1000033f4, 0x1000033f8)
  0x1000033f4: 00054783 		lbu  a5,0(a0)
  0x1000033f8: fc0788e3 		beqz  a5,1000033c8 <_ZNK14Updatable_heapI8N_puzzleILi4EEE7pointerERKS1_.isra.0+0x30>

413 Basic Block: (0x1000033fc, 0x100003404)
  0x1000033fc: 01452783 		lw  a5,20(a0)
  0x100003400: 00800713 		li  a4,8
  0x100003404: ff1794e3 		bne  a5,a7,1000033ec <_ZNK14Updatable_heapI8N_puzzleILi4EEE7pointerERKS1_.isra.0+0x54>

414 Basic Block: (0x100004ec8, 0x100004eec)
  0x100004ec8: 02052583 		lw  a1,32(a0)
  0x100004ecc: 02f52423 		sw  a5,40(a0)
  0x100004ed0: 00040513 		mv  a0,s0
  0x100004ed4: 02013403 		ld  s0,32(sp)
  0x100004ed8: 02813083 		ld  ra,40(sp)
  0x100004edc: 01813483 		ld  s1,24(sp)
  0x100004ee0: 01013903 		ld  s2,16(sp)
  0x100004ee4: 00813983 		ld  s3,8(sp)
  0x100004ee8: 03010113 		addi  sp,sp,48
  0x100004eec: dc9ff06f 		j  100004cb4 <_ZN14Updatable_heapI8N_puzzleILi4EEE12percolate_upEi>

415 Basic Block: (0x100004e3c, 0x100004e3c)
  0x100004e3c: feb798e3 		bne  a5,a1,100004e2c <_ZN14Updatable_heapI8N_puzzleILi4EEE4pushERKS1_i+0x108>

416 Basic Block: (0x1000038fc, 0x1000038fc)
  0x1000038fc: fefb18e3 		bne  s6,a5,1000038ec <bench_15pz_run+0x494>

417 Basic Block: (0x100003634, 0x100003634)
  0x100003634: ff7c18e3 		bne  s8,s7,100003624 <bench_15pz_run+0x1cc>

418 Basic Block: (0x100003420, 0x100003420)
  0x100003420: fcd596e3 		bne  a1,a3,1000033ec <_ZNK14Updatable_heapI8N_puzzleILi4EEE7pointerERKS1_.isra.0+0x54>

419 Basic Block: (0x100003be4, 0x100003be4)
  0x100003be4: ff6798e3 		bne  a5,s6,100003bd4 <bench_15pz_run+0x77c>

420 Basic Block: (0x100003668, 0x100003668)
  0x100003668: 470010ef 		jal  100004ad8 <_ZN8N_puzzleILi4EEC1EPi>

421 Basic Block: (0x100004b60, 0x100004b60)
  0x100004b60: 06061e63 		bnez  a2,100004bdc <_ZN8N_puzzleILi4EEC1EPi+0x104>

422 Basic Block: (0x100003278, 0x100003278)
  0x100003278: 00d70863 		beq  a4,a3,100003288 <bench_alloc+0x50>

423 Basic Block: (0x1000039c8, 0x1000039c8)
  0x1000039c8: fef618e3 		bne  a2,a5,1000039b8 <bench_15pz_run+0x560>

424 Basic Block: (0x1000038b8, 0x1000038b8)
  0x1000038b8: ae1ff0ef 		jal  100003398 <_ZNK14Updatable_heapI8N_puzzleILi4EEE7pointerERKS1_.isra.0>

425 Basic Block: (0x100004f70, 0x100004f70)
  0x100004f70: 010f5463 		bge  t5,a6,100004f78 <_ZN14Updatable_heapI8N_puzzleILi4EEE14percolate_downEv+0x54>

426 Basic Block: (0x100004bc4, 0x100004bc4)
  0x100004bc4: fec798e3 		bne  a5,a2,100004bb4 <_ZN8N_puzzleILi4EEC1EPi+0xdc>

427 Basic Block: (0x100003268, 0x100003268)
  0x100003268: 04c76263 		bltu  a4,a2,1000032ac <bench_alloc+0x74>

428 Basic Block: (0x100004e98, 0x100004e98)
  0x100004e98: 0137d463 		bge  a5,s3,100004ea0 <_ZN14Updatable_heapI8N_puzzleILi4EEE4pushERKS1_i+0x17c>

429 Basic Block: (0x10000339c, 0x10000339c)
  0x10000339c: 00080e63 		beqz  a6,1000033b8 <_ZNK14Updatable_heapI8N_puzzleILi4EEE7pointerERKS1_.isra.0+0x20>

430 Basic Block: (0x100003a74, 0x100003a74)
  0x100003a74: ff6a18e3 		bne  s4,s6,100003a64 <bench_15pz_run+0x60c>

431 Basic Block: (0x100004f98, 0x100004f98)
  0x100004f98: fa7742e3 		blt  a4,t2,100004f3c <_ZN14Updatable_heapI8N_puzzleILi4EEE14percolate_downEv+0x18>

432 Basic Block: (0x100004ec4, 0x100004ec4)
  0x100004ec4: f09ff06f 		j  100004dcc <_ZN14Updatable_heapI8N_puzzleILi4EEE4pushERKS1_i+0xa8>

433 Basic Block: (0x1000033e8, 0x1000033e8)
  0x1000033e8: 03178063 		beq  a5,a7,100003408 <_ZNK14Updatable_heapI8N_puzzleILi4EEE7pointerERKS1_.isra.0+0x70>

434 Basic Block: (0x100003780, 0x100003780)
  0x100003780: 44fa8063 		beq  s5,a5,100003bc0 <bench_15pz_run+0x768>

435 Basic Block: (0x100003d10, 0x100003d10)
  0x100003d10: 014010ef 		jal  100004d24 <_ZN14Updatable_heapI8N_puzzleILi4EEE4pushERKS1_i>

436 Basic Block: (0x100004d1c, 0x100004d1c)
  0x100004d1c: fa6e4ee3 		blt  t3,t1,100004cd8 <_ZN14Updatable_heapI8N_puzzleILi4EEE12percolate_upEi+0x24>

437 Basic Block: (0x100003bb8, 0x100003bb8)
  0x100003bb8: 16c010ef 		jal  100004d24 <_ZN14Updatable_heapI8N_puzzleILi4EEE4pushERKS1_i>

438 Basic Block: (0x1000033d4, 0x1000033d4)
  0x1000033d4: fe078ae3 		beqz  a5,1000033c8 <_ZNK14Updatable_heapI8N_puzzleILi4EEE7pointerERKS1_.isra.0+0x30>

439 Basic Block: (0x100004e8c, 0x100004e8c)
  0x100004e8c: e29ff0ef 		jal  100004cb4 <_ZN14Updatable_heapI8N_puzzleILi4EEE12percolate_upEi>

440 Basic Block: (0x100003298, 0x100003298)
  0x100003298: 02e7ea63 		bltu  a5,a4,1000032cc <bench_alloc+0x94>

441 Basic Block: (0x100003854, 0x100003854)
  0x100003854: fec798e3 		bne  a5,a2,100003844 <bench_15pz_run+0x3ec>

442 Basic Block: (0x100004ebc, 0x100004ebc)
  0x100004ebc: 00008067 		ret

443 Basic Block: (0x1000038d0, 0x1000038d0)
  0x1000038d0: 454010ef 		jal  100004d24 <_ZN14Updatable_heapI8N_puzzleILi4EEE4pushERKS1_i>

444 Basic Block: (0x100003658, 0x100003658)
  0x100003658: fed79ae3 		bne  a5,a3,10000364c <bench_15pz_run+0x1f4>

445 Basic Block: (0x100004dc8, 0x100004dc8)
  0x100004dc8: 0e089c63 		bnez  a7,100004ec0 <_ZN14Updatable_heapI8N_puzzleILi4EEE4pushERKS1_i+0x19c>

446 Basic Block: (0x1000035d8, 0x1000035d8)
  0x1000035d8: fee798e3 		bne  a5,a4,1000035c8 <bench_15pz_run+0x170>

447 Basic Block: (0x100003c94, 0x100003c94)
  0x100003c94: fec798e3 		bne  a5,a2,100003c84 <bench_15pz_run+0x82c>

448 Basic Block: (0x100004bcc, 0x100004bcc)
  0x100004bcc: ff0612e3 		bne  a2,a6,100004bb0 <_ZN8N_puzzleILi4EEC1EPi+0xd8>

449 Basic Block: (0x100004fbc, 0x100004fbc)
  0x100004fbc: fd9ff06f 		j  100004f94 <_ZN14Updatable_heapI8N_puzzleILi4EEE14percolate_downEv+0x70>

450 Basic Block: (0x100004b74, 0x100004b74)
  0x100004b74: f9e69ae3 		bne  a3,t5,100004b08 <_ZN8N_puzzleILi4EEC1EPi+0x30>

451 Basic Block: (0x10000342c, 0x10000342c)
  0x10000342c: fc671ee3 		bne  a4,t1,100003408 <_ZNK14Updatable_heapI8N_puzzleILi4EEE7pointerERKS1_.isra.0+0x70>

452 Basic Block: (0x100003a44, 0x100003a44)
  0x100003a44: 2e0010ef 		jal  100004d24 <_ZN14Updatable_heapI8N_puzzleILi4EEE4pushERKS1_i>

453 Basic Block: (0x1000033bc, 0x1000033bc)
  0x1000033bc: 06050a63 		beqz  a0,100003430 <_ZNK14Updatable_heapI8N_puzzleILi4EEE7pointerERKS1_.isra.0+0x98>

454 Basic Block: (0x1000032a8, 0x1000032a8)
  0x1000032a8: 00008067 		ret

455 Basic Block: (0x100004be8, 0x100004be8)
  0x100004be8: f85ff06f 		j  100004b6c <_ZN8N_puzzleILi4EEC1EPi+0x94>

456 Basic Block: (0x1000038a8, 0x1000038a8)
  0x1000038a8: fed516e3 		bne  a0,a3,100003894 <bench_15pz_run+0x43c>

457 Basic Block: (0x1000038dc, 0x1000038dc)
  0x1000038dc: 18f98063 		beq  s3,a5,100003a5c <bench_15pz_run+0x604>

458 Basic Block: (0x100003c9c, 0x100003c9c)
  0x100003c9c: ffc612e3 		bne  a2,t3,100003c80 <bench_15pz_run+0x828>

459 Basic Block: (0x100004b98, 0x100004b98)
  0x100004b98: 04070a63 		beqz  a4,100004bec <_ZN8N_puzzleILi4EEC1EPi+0x114>

460 Basic Block: (0x100003270, 0x100003270)
  0x100003270: 02f77e63 		bgeu  a4,a5,1000032ac <bench_alloc+0x74>

461 Basic Block: (0x100003ce8, 0x100003ce8)
  0x100003ce8: fea696e3 		bne  a3,a0,100003cd4 <bench_15pz_run+0x87c>

462 Basic Block: (0x100003b90, 0x100003b90)
  0x100003b90: fed516e3 		bne  a0,a3,100003b7c <bench_15pz_run+0x724>

463 Basic Block: (0x100003404, 0x100003404)
  0x100003404: ff1794e3 		bne  a5,a7,1000033ec <_ZNK14Updatable_heapI8N_puzzleILi4EEE7pointerERKS1_.isra.0+0x54>

464 Basic Block: (0x100004d80, 0x100004d80)
  0x100004d80: 14e7c463 		blt  a5,a4,100004ec8 <_ZN14Updatable_heapI8N_puzzleILi4EEE4pushERKS1_i+0x1a4>

465 Basic Block: (0x100003674, 0x100003674)
  0x100003674: 0e078e63 		beqz  a5,100003770 <bench_15pz_run+0x318>

466 Basic Block: (0x1000033c4, 0x1000033c4)
  0x1000033c4: 00c0006f 		j  1000033d0 <_ZNK14Updatable_heapI8N_puzzleILi4EEE7pointerERKS1_.isra.0+0x38>

467 Basic Block: (0x100004bd8, 0x100004bd8)
  0x100004bd8: 00008067 		ret

468 Basic Block: (0x100004cec, 0x100004cec)
  0x100004cec: 03d58a63 		beq  a1,t4,100004d20 <_ZN14Updatable_heapI8N_puzzleILi4EEE12percolate_upEi+0x6c>

469 Basic Block: (0x1000033f0, 0x1000033f0)
  0x1000033f0: 04050063 		beqz  a0,100003430 <_ZNK14Updatable_heapI8N_puzzleILi4EEE7pointerERKS1_.isra.0+0x98>

470 Basic Block: (0x100004b84, 0x100004b84)
  0x100004b84: f6de1ee3 		bne  t3,a3,100004b00 <_ZN8N_puzzleILi4EEC1EPi+0x28>

471 Basic Block: (0x100004da4, 0x100004da4)
  0x100004da4: 16f9c063 		blt  s3,a5,100004f04 <_ZN14Updatable_heapI8N_puzzleILi4EEE4pushERKS1_i+0x1e0>

472 Basic Block: (0x100004db4, 0x100004db4)
  0x100004db4: c84fe0ef 		jal  100003238 <bench_alloc>

473 Basic Block: (0x100003cf8, 0x100003cf8)
  0x100003cf8: ea0ff0ef 		jal  100003398 <_ZNK14Updatable_heapI8N_puzzleILi4EEE7pointerERKS1_.isra.0>

474 Basic Block: (0x1000033f8, 0x1000033f8)
  0x1000033f8: fc0788e3 		beqz  a5,1000033c8 <_ZNK14Updatable_heapI8N_puzzleILi4EEE7pointerERKS1_.isra.0+0x30>

475 Basic Block: (0x100004d58, 0x100004d58)
  0x100004d58: e40fe0ef 		jal  100003398 <_ZNK14Updatable_heapI8N_puzzleILi4EEE7pointerERKS1_.isra.0>

476 Basic Block: (0x100003890, 0x100003890)
  0x100003890: 00d50e63 		beq  a0,a3,1000038ac <bench_15pz_run+0x454>

477 Basic Block: (0x100004d9c, 0x100004d9c)
  0x100004d9c: 00008067 		ret

478 Basic Block: (0x100003b78, 0x100003b78)
  0x100003b78: 00d50e63 		beq  a0,a3,100003b94 <bench_15pz_run+0x73c>

479 Basic Block: (0x1000037a0, 0x1000037a0)
  0x1000037a0: fefb18e3 		bne  s6,a5,100003790 <bench_15pz_run+0x338>

480 Basic Block: (0x100003610, 0x100003610)
  0x100003610: 115010ef 		jal  100004f24 <_ZN14Updatable_heapI8N_puzzleILi4EEE14percolate_downEv>

481 Basic Block: (0x100003cd0, 0x100003cd0)
  0x100003cd0: 00a68e63 		beq  a3,a0,100003cec <bench_15pz_run+0x894>

482 Basic Block: (0x100004cd4, 0x100004cd4)
  0x100004cd4: 01c0006f 		j  100004cf0 <_ZN14Updatable_heapI8N_puzzleILi4EEE12percolate_upEi+0x3c>

483 Basic Block: (0x100003a1c, 0x100003a1c)
  0x100003a1c: fea696e3 		bne  a3,a0,100003a08 <bench_15pz_run+0x5b0>

484 Basic Block: (0x100004e48, 0x100004e48)
  0x100004e48: 0a088463 		beqz  a7,100004ef0 <_ZN14Updatable_heapI8N_puzzleILi4EEE4pushERKS1_i+0x1cc>

485 Basic Block: (0x100003a04, 0x100003a04)
  0x100003a04: 00a68e63 		beq  a3,a0,100003a20 <bench_15pz_run+0x5c8>

486 Basic Block: (0x100003684, 0x1000036a0)
  0x100003684: ffc68793 		addi  a5,a3,-4
  0x100003688: 03010713 		addi  a4,sp,48
  0x10000368c: 00f70733 		add  a4,a4,a5
  0x100003690: 00474603 		lbu  a2,4(a4)
  0x100003694: 04810713 		addi  a4,sp,72
  0x100003698: 00f70733 		add  a4,a4,a5
  0x10000369c: 00474703 		lbu  a4,4(a4)
  0x1000036a0: 0ce61863 		bne  a2,a4,100003770 <bench_15pz_run+0x318>

487 Basic Block: (0x1000036a4, 0x1000036a8)
  0x1000036a4: 00178793 		addi  a5,a5,1
  0x1000036a8: fef690e3 		bne  a3,a5,100003688 <bench_15pz_run+0x230>

488 Basic Block: (0x100003688, 0x1000036a0)
  0x100003688: 03010713 		addi  a4,sp,48
  0x10000368c: 00f70733 		add  a4,a4,a5
  0x100003690: 00474603 		lbu  a2,4(a4)
  0x100003694: 04810713 		addi  a4,sp,72
  0x100003698: 00f70733 		add  a4,a4,a5
  0x10000369c: 00474703 		lbu  a4,4(a4)
  0x1000036a0: 0ce61863 		bne  a2,a4,100003770 <bench_15pz_run+0x318>

489 Basic Block: (0x1000036ac, 0x1000036b4)
  0x1000036ac: 00468693 		addi  a3,a3,4
  0x1000036b0: 01400793 		li  a5,20
  0x1000036b4: fcf698e3 		bne  a3,a5,100003684 <bench_15pz_run+0x22c>

490 Basic Block: (0x1000036b8, 0x1000036c4)
  0x1000036b8: 00843583 		ld  a1,8(s0)
  0x1000036bc: 00042503 		lw  a0,0(s0)
  0x1000036c0: 03010613 		addi  a2,sp,48
  0x1000036c4: cd5ff0ef 		jal  100003398 <_ZNK14Updatable_heapI8N_puzzleILi4EEE7pointerERKS1_.isra.0>

491 Basic Block: (0x1000036c8, 0x1000036d0)
  0x1000036c8: 800007b7 		lui  a5,0x80000
  0x1000036cc: fff7c793 		not  a5,a5
  0x1000036d0: 00050463 		beqz  a0,1000036d8 <bench_15pz_run+0x280>

492 Basic Block: (0x1000036d4, 0x100003720)
  0x1000036d4: 02452783 		lw  a5,36(a0)
  0x1000036d8: 02fc07bb 		mulw  a5,s8,a5
  0x1000036dc: 000fd717 		auipc  a4,0xfd
  0x1000036e0: a4470713 		addi  a4,a4,-1468 # 100100120 <_ZL3ans>
  0x1000036e4: 00f72023 		sw  a5,0(a4)
  0x1000036e8: 0e813983 		ld  s3,232(sp)
  0x1000036ec: 0e013a03 		ld  s4,224(sp)
  0x1000036f0: 0d813a83 		ld  s5,216(sp)
  0x1000036f4: 0d013b03 		ld  s6,208(sp)
  0x1000036f8: 0c813b83 		ld  s7,200(sp)
  0x1000036fc: 0c013c03 		ld  s8,192(sp)
  0x100003700: 0b813c83 		ld  s9,184(sp)
  0x100003704: 0b013d03 		ld  s10,176(sp)
  0x100003708: 10013403 		ld  s0,256(sp)
  0x10000370c: 10813083 		ld  ra,264(sp)
  0x100003710: 0f013903 		ld  s2,240(sp)
  0x100003714: 0f813483 		ld  s1,248(sp)
  0x100003718: 0a813d83 		ld  s11,168(sp)
  0x10000371c: 11010113 		addi  sp,sp,272
  0x100003720: 00008067 		ret

493 Basic Block: (0x100003438, 0x100003454)
  0x100003438: 000fd797 		auipc  a5,0xfd
  0x10000343c: cd87b783 		ld  a5,-808(a5) # 100100110 <setting>
  0x100003440: 0187a503 		lw  a0,24(a5)
  0x100003444: 000fd797 		auipc  a5,0xfd
  0x100003448: cdc7a783 		lw  a5,-804(a5) # 100100120 <_ZL3ans>
  0x10000344c: 40f50533 		sub  a0,a0,a5
  0x100003450: 00153513 		seqz  a0,a0
  0x100003454: 00008067 		ret

494 Basic Block: (0x100000c34, 0x100000c84)
  0x100000c34: 000ff797 		auipc  a5,0xff
  0x100000c38: 4dc7b783 		ld  a5,1244(a5) # 100100110 <setting>
  0x100000c3c: 0007a783 		lw  a5,0(a5)
  0x100000c40: f9010113 		addi  sp,sp,-112
  0x100000c44: 06113423 		sd  ra,104(sp)
  0x100000c48: 06813023 		sd  s0,96(sp)
  0x100000c4c: 04913c23 		sd  s1,88(sp)
  0x100000c50: 05213823 		sd  s2,80(sp)
  0x100000c54: 05313423 		sd  s3,72(sp)
  0x100000c58: 05413023 		sd  s4,64(sp)
  0x100000c5c: 03513c23 		sd  s5,56(sp)
  0x100000c60: 03613823 		sd  s6,48(sp)
  0x100000c64: 03713423 		sd  s7,40(sp)
  0x100000c68: 03813023 		sd  s8,32(sp)
  0x100000c6c: 01913c23 		sd  s9,24(sp)
  0x100000c70: 000ff917 		auipc  s2,0xff
  0x100000c74: 3e090913 		addi  s2,s2,992 # 100100050 <_ZL1N>
  0x100000c78: 01a13823 		sd  s10,16(sp)
  0x100000c7c: 00100513 		li  a0,1
  0x100000c80: 00f92023 		sw  a5,0(s2)
  0x100000c84: 654020ef 		jal  1000032d8 <bench_srand>

495 Basic Block: (0x100000c88, 0x100000c90)
  0x100000c88: 04800513 		li  a0,72
  0x100000c8c: 00092b83 		lw  s7,0(s2)
  0x100000c90: 5a8020ef 		jal  100003238 <bench_alloc>

496 Basic Block: (0x100000c94, 0x100000cd8)
  0x100000c94: 00092403 		lw  s0,0(s2)
  0x100000c98: 000ff997 		auipc  s3,0xff
  0x100000c9c: 3b098993 		addi  s3,s3,944 # 100100048 <_ZL1G>
  0x100000ca0: 00050493 		mv  s1,a0
  0x100000ca4: 00140a9b 		addiw  s5,s0,1
  0x100000ca8: 001a9b1b 		slliw  s6,s5,0x1
  0x100000cac: ffeb079b 		addiw  a5,s6,-2
  0x100000cb0: 4017d79b 		sraiw  a5,a5,0x1
  0x100000cb4: 02f78a3b 		mulw  s4,a5,a5
  0x100000cb8: 0017979b 		slliw  a5,a5,0x1
  0x100000cbc: 00a9b023 		sd  a0,0(s3)
  0x100000cc0: 002b1c93 		slli  s9,s6,0x2
  0x100000cc4: 001b9c1b 		slliw  s8,s7,0x1
  0x100000cc8: 001c0b9b 		addiw  s7,s8,1
  0x100000ccc: 00fa0a3b 		addw  s4,s4,a5
  0x100000cd0: 001a1a1b 		slliw  s4,s4,0x1
  0x100000cd4: 004a1513 		slli  a0,s4,0x4
  0x100000cd8: 560020ef 		jal  100003238 <bench_alloc>

497 Basic Block: (0x100000cdc, 0x100000ce4)
  0x100000cdc: 00a4b823 		sd  a0,16(s1)
  0x100000ce0: 000c8513 		mv  a0,s9
  0x100000ce4: 554020ef 		jal  100003238 <bench_alloc>

498 Basic Block: (0x100000ce8, 0x100000cf0)
  0x100000ce8: 00a4bc23 		sd  a0,24(s1)
  0x100000cec: 002a1513 		slli  a0,s4,0x2
  0x100000cf0: 548020ef 		jal  100003238 <bench_alloc>

499 Basic Block: (0x100000cf4, 0x100000cfc)
  0x100000cf4: 02a4b023 		sd  a0,32(s1)
  0x100000cf8: 000b0513 		mv  a0,s6
  0x100000cfc: 53c020ef 		jal  100003238 <bench_alloc>

500 Basic Block: (0x100000d00, 0x100000d08)
  0x100000d00: 04a4b023 		sd  a0,64(s1)
  0x100000d04: 000c8513 		mv  a0,s9
  0x100000d08: 530020ef 		jal  100003238 <bench_alloc>

501 Basic Block: (0x100000d0c, 0x100000d14)
  0x100000d0c: 02a4b423 		sd  a0,40(s1)
  0x100000d10: 000c8513 		mv  a0,s9
  0x100000d14: 524020ef 		jal  100003238 <bench_alloc>

502 Basic Block: (0x100000d18, 0x100000d20)
  0x100000d18: 02a4b823 		sd  a0,48(s1)
  0x100000d1c: 000c8513 		mv  a0,s9
  0x100000d20: 518020ef 		jal  100003238 <bench_alloc>

503 Basic Block: (0x100000d24, 0x100000d2c)
  0x100000d24: 02a4bc23 		sd  a0,56(s1)
  0x100000d28: 0164a023 		sw  s6,0(s1)
  0x100000d2c: 03605863 		blez  s6,100000d5c <bench_dinic_prepare+0x128>

504 Basic Block: (0x100000d30, 0x100000d58)
  0x100000d30: 0014171b 		slliw  a4,s0,0x1
  0x100000d34: 0017071b 		addiw  a4,a4,1
  0x100000d38: 02071693 		slli  a3,a4,0x20
  0x100000d3c: 0184b783 		ld  a5,24(s1)
  0x100000d40: 01e6d713 		srli  a4,a3,0x1e
  0x100000d44: 00470713 		addi  a4,a4,4
  0x100000d48: 00f70733 		add  a4,a4,a5
  0x100000d4c: fff00693 		li  a3,-1
  0x100000d50: 00d7a023 		sw  a3,0(a5)
  0x100000d54: 00478793 		addi  a5,a5,4
  0x100000d58: fee79ce3 		bne  a5,a4,100000d50 <bench_dinic_prepare+0x11c>

505 Basic Block: (0x100000d50, 0x100000d58)
  0x100000d50: 00d7a023 		sw  a3,0(a5)
  0x100000d54: 00478793 		addi  a5,a5,4
  0x100000d58: fee79ce3 		bne  a5,a4,100000d50 <bench_dinic_prepare+0x11c>

506 Basic Block: (0x100000d5c, 0x100000d70)
  0x100000d5c: 00092d03 		lw  s10,0(s2)
  0x100000d60: 0004a223 		sw  zero,4(s1)
  0x100000d64: 00000b13 		li  s6,0
  0x100000d68: 00000493 		li  s1,0
  0x100000d6c: 00a00a13 		li  s4,10
  0x100000d70: 0da05a63 		blez  s10,100000e44 <bench_dinic_prepare+0x210>

507 Basic Block: (0x100000d74, 0x100000d80)
  0x100000d74: 002b1a93 		slli  s5,s6,0x2
  0x100000d78: 00000c93 		li  s9,0
  0x100000d7c: 0009b403 		ld  s0,0(s3)
  0x100000d80: 56c020ef 		jal  1000032ec <bench_rand>

508 Basic Block: (0x100000d84, 0x100000da0)
  0x100000d84: 0345753b 		remuw  a0,a0,s4
  0x100000d88: 019d07bb 		addw  a5,s10,s9
  0x100000d8c: 00078813 		mv  a6,a5
  0x100000d90: 00279593 		slli  a1,a5,0x2
  0x100000d94: 00092d03 		lw  s10,0(s2)
  0x100000d98: 001c8c9b 		addiw  s9,s9,1
  0x100000d9c: 0005079b 		sext.w  a5,a0
  0x100000da0: 08078863 		beqz  a5,100000e30 <bench_dinic_prepare+0x1fc>

509 Basic Block: (0x100000da4, 0x100000e30)
  0x100000da4: 00442703 		lw  a4,4(s0)
  0x100000da8: 01043783 		ld  a5,16(s0)
  0x100000dac: 01843603 		ld  a2,24(s0)
  0x100000db0: 00471693 		slli  a3,a4,0x4
  0x100000db4: 00d786b3 		add  a3,a5,a3
  0x100000db8: 0096a023 		sw  s1,0(a3)
  0x100000dbc: 00a6a423 		sw  a0,8(a3)
  0x100000dc0: 0106a223 		sw  a6,4(a3)
  0x100000dc4: 0006a623 		sw  zero,12(a3)
  0x100000dc8: 01560533 		add  a0,a2,s5
  0x100000dcc: 02043683 		ld  a3,32(s0)
  0x100000dd0: 00052883 		lw  a7,0(a0)
  0x100000dd4: 00271713 		slli  a4,a4,0x2
  0x100000dd8: 00e68733 		add  a4,a3,a4
  0x100000ddc: 01172023 		sw  a7,0(a4)
  0x100000de0: 00442883 		lw  a7,4(s0)
  0x100000de4: 00b60733 		add  a4,a2,a1
  0x100000de8: 0018861b 		addiw  a2,a7,1
  0x100000dec: 00c42223 		sw  a2,4(s0)
  0x100000df0: 01152023 		sw  a7,0(a0)
  0x100000df4: 00442603 		lw  a2,4(s0)
  0x100000df8: 00461593 		slli  a1,a2,0x4
  0x100000dfc: 00b787b3 		add  a5,a5,a1
  0x100000e00: 0107a023 		sw  a6,0(a5)
  0x100000e04: 0097a223 		sw  s1,4(a5)
  0x100000e08: 0007a423 		sw  zero,8(a5)
  0x100000e0c: 0007a623 		sw  zero,12(a5)
  0x100000e10: 00072783 		lw  a5,0(a4)
  0x100000e14: 00261613 		slli  a2,a2,0x2
  0x100000e18: 00c686b3 		add  a3,a3,a2
  0x100000e1c: 00f6a023 		sw  a5,0(a3)
  0x100000e20: 00442783 		lw  a5,4(s0)
  0x100000e24: 0017869b 		addiw  a3,a5,1
  0x100000e28: 00d42223 		sw  a3,4(s0)
  0x100000e2c: 00f72023 		sw  a5,0(a4)
  0x100000e30: f5acc6e3 		blt  s9,s10,100000d7c <bench_dinic_prepare+0x148>

510 Basic Block: (0x100000d7c, 0x100000d80)
  0x100000d7c: 0009b403 		ld  s0,0(s3)
  0x100000d80: 56c020ef 		jal  1000032ec <bench_rand>

511 Basic Block: (0x100000e30, 0x100000e30)
  0x100000e30: f5acc6e3 		blt  s9,s10,100000d7c <bench_dinic_prepare+0x148>

512 Basic Block: (0x100000e34, 0x100000e3c)
  0x100000e34: 001b0b13 		addi  s6,s6,1
  0x100000e38: 000b049b 		sext.w  s1,s6
  0x100000e3c: 05a4d063 		bge  s1,s10,100000e7c <bench_dinic_prepare+0x248>

513 Basic Block: (0x100000e40, 0x100000e40)
  0x100000e40: f3a04ae3 		bgtz  s10,100000d74 <bench_dinic_prepare+0x140>

514 Basic Block: (0x100000d80, 0x100000d80)
  0x100000d80: 56c020ef 		jal  1000032ec <bench_rand>

515 Basic Block: (0x100000da0, 0x100000da0)
  0x100000da0: 08078863 		beqz  a5,100000e30 <bench_dinic_prepare+0x1fc>

516 Basic Block: (0x100000e7c, 0x100000e7c)
  0x100000e7c: fda054e3 		blez  s10,100000e44 <bench_dinic_prepare+0x210>

517 Basic Block: (0x100000e80, 0x100000e9c)
  0x100000e80: 01b13423 		sd  s11,8(sp)
  0x100000e84: 002c1b13 		slli  s6,s8,0x2
  0x100000e88: 002b9a93 		slli  s5,s7,0x2
  0x100000e8c: 00000c93 		li  s9,0
  0x100000e90: 00000d13 		li  s10,0
  0x100000e94: 3e800a13 		li  s4,1000
  0x100000e98: 0009b483 		ld  s1,0(s3)
  0x100000e9c: 450020ef 		jal  1000032ec <bench_rand>

518 Basic Block: (0x100000ea0, 0x100000eb4)
  0x100000ea0: 034577bb 		remuw  a5,a0,s4
  0x100000ea4: 0009b403 		ld  s0,0(s3)
  0x100000ea8: 00092d83 		lw  s11,0(s2)
  0x100000eac: 002c9813 		slli  a6,s9,0x2
  0x100000eb0: 00078513 		mv  a0,a5
  0x100000eb4: 08078863 		beqz  a5,100000f44 <bench_dinic_prepare+0x310>

519 Basic Block: (0x100000eb8, 0x100000f44)
  0x100000eb8: 0044a703 		lw  a4,4(s1)
  0x100000ebc: 0104b783 		ld  a5,16(s1)
  0x100000ec0: 0184b603 		ld  a2,24(s1)
  0x100000ec4: 00471693 		slli  a3,a4,0x4
  0x100000ec8: 00d786b3 		add  a3,a5,a3
  0x100000ecc: 0186a023 		sw  s8,0(a3)
  0x100000ed0: 01a6a223 		sw  s10,4(a3)
  0x100000ed4: 00a6a423 		sw  a0,8(a3)
  0x100000ed8: 0006a623 		sw  zero,12(a3)
  0x100000edc: 016605b3 		add  a1,a2,s6
  0x100000ee0: 0204b683 		ld  a3,32(s1)
  0x100000ee4: 0005a503 		lw  a0,0(a1)
  0x100000ee8: 00271713 		slli  a4,a4,0x2
  0x100000eec: 00e68733 		add  a4,a3,a4
  0x100000ef0: 00a72023 		sw  a0,0(a4)
  0x100000ef4: 0044a503 		lw  a0,4(s1)
  0x100000ef8: 01060733 		add  a4,a2,a6
  0x100000efc: 0015061b 		addiw  a2,a0,1
  0x100000f00: 00c4a223 		sw  a2,4(s1)
  0x100000f04: 00a5a023 		sw  a0,0(a1)
  0x100000f08: 0044a603 		lw  a2,4(s1)
  0x100000f0c: 00461593 		slli  a1,a2,0x4
  0x100000f10: 00b787b3 		add  a5,a5,a1
  0x100000f14: 01a7a023 		sw  s10,0(a5)
  0x100000f18: 0187a223 		sw  s8,4(a5)
  0x100000f1c: 0007a423 		sw  zero,8(a5)
  0x100000f20: 0007a623 		sw  zero,12(a5)
  0x100000f24: 00072783 		lw  a5,0(a4)
  0x100000f28: 00261613 		slli  a2,a2,0x2
  0x100000f2c: 00c686b3 		add  a3,a3,a2
  0x100000f30: 00f6a023 		sw  a5,0(a3)
  0x100000f34: 0044a783 		lw  a5,4(s1)
  0x100000f38: 0017869b 		addiw  a3,a5,1
  0x100000f3c: 00d4a223 		sw  a3,4(s1)
  0x100000f40: 00f72023 		sw  a5,0(a4)
  0x100000f44: 3a8020ef 		jal  1000032ec <bench_rand>

520 Basic Block: (0x100000f48, 0x100000f68)
  0x100000f48: 0345773b 		remuw  a4,a0,s4
  0x100000f4c: 01ad87bb 		addw  a5,s11,s10
  0x100000f50: 001c8c93 		addi  s9,s9,1
  0x100000f54: 00078813 		mv  a6,a5
  0x100000f58: 00092883 		lw  a7,0(s2)
  0x100000f5c: 00279793 		slli  a5,a5,0x2
  0x100000f60: 000c8d1b 		sext.w  s10,s9
  0x100000f64: 00070513 		mv  a0,a4
  0x100000f68: 08070863 		beqz  a4,100000ff8 <bench_dinic_prepare+0x3c4>

521 Basic Block: (0x100000f6c, 0x100000ff8)
  0x100000f6c: 00442683 		lw  a3,4(s0)
  0x100000f70: 01043703 		ld  a4,16(s0)
  0x100000f74: 01843583 		ld  a1,24(s0)
  0x100000f78: 00469613 		slli  a2,a3,0x4
  0x100000f7c: 00c70633 		add  a2,a4,a2
  0x100000f80: 01062023 		sw  a6,0(a2)
  0x100000f84: 01762223 		sw  s7,4(a2)
  0x100000f88: 00a62423 		sw  a0,8(a2)
  0x100000f8c: 00062623 		sw  zero,12(a2)
  0x100000f90: 00f587b3 		add  a5,a1,a5
  0x100000f94: 02043603 		ld  a2,32(s0)
  0x100000f98: 0007a503 		lw  a0,0(a5)
  0x100000f9c: 00269693 		slli  a3,a3,0x2
  0x100000fa0: 00d606b3 		add  a3,a2,a3
  0x100000fa4: 00a6a023 		sw  a0,0(a3)
  0x100000fa8: 00442503 		lw  a0,4(s0)
  0x100000fac: 015586b3 		add  a3,a1,s5
  0x100000fb0: 0015059b 		addiw  a1,a0,1
  0x100000fb4: 00b42223 		sw  a1,4(s0)
  0x100000fb8: 00a7a023 		sw  a0,0(a5)
  0x100000fbc: 00442583 		lw  a1,4(s0)
  0x100000fc0: 00459793 		slli  a5,a1,0x4
  0x100000fc4: 00f707b3 		add  a5,a4,a5
  0x100000fc8: 0177a023 		sw  s7,0(a5)
  0x100000fcc: 0107a223 		sw  a6,4(a5)
  0x100000fd0: 0007a423 		sw  zero,8(a5)
  0x100000fd4: 0007a623 		sw  zero,12(a5)
  0x100000fd8: 0006a783 		lw  a5,0(a3)
  0x100000fdc: 00259593 		slli  a1,a1,0x2
  0x100000fe0: 00b60633 		add  a2,a2,a1
  0x100000fe4: 00f62023 		sw  a5,0(a2)
  0x100000fe8: 00442783 		lw  a5,4(s0)
  0x100000fec: 0017871b 		addiw  a4,a5,1
  0x100000ff0: 00e42223 		sw  a4,4(s0)
  0x100000ff4: 00f6a023 		sw  a5,0(a3)
  0x100000ff8: eb1d40e3 		blt  s10,a7,100000e98 <bench_dinic_prepare+0x264>

522 Basic Block: (0x100000e98, 0x100000e9c)
  0x100000e98: 0009b483 		ld  s1,0(s3)
  0x100000e9c: 450020ef 		jal  1000032ec <bench_rand>

523 Basic Block: (0x100000ffc, 0x100001000)
  0x100000ffc: 00813d83 		ld  s11,8(sp)
  0x100001000: e45ff06f 		j  100000e44 <bench_dinic_prepare+0x210>

524 Basic Block: (0x100000e44, 0x100000e78)
  0x100000e44: 06813083 		ld  ra,104(sp)
  0x100000e48: 06013403 		ld  s0,96(sp)
  0x100000e4c: 05813483 		ld  s1,88(sp)
  0x100000e50: 05013903 		ld  s2,80(sp)
  0x100000e54: 04813983 		ld  s3,72(sp)
  0x100000e58: 04013a03 		ld  s4,64(sp)
  0x100000e5c: 03813a83 		ld  s5,56(sp)
  0x100000e60: 03013b03 		ld  s6,48(sp)
  0x100000e64: 02813b83 		ld  s7,40(sp)
  0x100000e68: 02013c03 		ld  s8,32(sp)
  0x100000e6c: 01813c83 		ld  s9,24(sp)
  0x100000e70: 01013d03 		ld  s10,16(sp)
  0x100000e74: 07010113 		addi  sp,sp,112
  0x100000e78: 00008067 		ret

525 Basic Block: (0x100001004, 0x1000010d4)
  0x100001004: ee010113 		addi  sp,sp,-288
  0x100001008: 10813823 		sd  s0,272(sp)
  0x10000100c: 000ff797 		auipc  a5,0xff
  0x100001010: 0447a783 		lw  a5,68(a5) # 100100050 <_ZL1N>
  0x100001014: 000ff417 		auipc  s0,0xff
  0x100001018: 03443403 		ld  s0,52(s0) # 100100048 <_ZL1G>
  0x10000101c: 0017979b 		slliw  a5,a5,0x1
  0x100001020: 02843e83 		ld  t4,40(s0)
  0x100001024: 0f513423 		sd  s5,232(sp)
  0x100001028: 0017871b 		addiw  a4,a5,1
  0x10000102c: 00078a9b 		sext.w  s5,a5
  0x100001030: 02079793 		slli  a5,a5,0x20
  0x100001034: 0f313c23 		sd  s3,248(sp)
  0x100001038: 0f613023 		sd  s6,224(sp)
  0x10000103c: 03843983 		ld  s3,56(s0)
  0x100001040: 04043b03 		ld  s6,64(s0)
  0x100001044: 0da13023 		sd  s10,192(sp)
  0x100001048: 002a9593 		slli  a1,s5,0x2
  0x10000104c: 01843d03 		ld  s10,24(s0)
  0x100001050: 02071713 		slli  a4,a4,0x20
  0x100001054: 0207d793 		srli  a5,a5,0x20
  0x100001058: 10913423 		sd  s1,264(sp)
  0x10000105c: 0f413823 		sd  s4,240(sp)
  0x100001060: 0d713c23 		sd  s7,216(sp)
  0x100001064: 0d813823 		sd  s8,208(sp)
  0x100001068: 00e7e7b3 		or  a5,a5,a4
  0x10000106c: 00be8bb3 		add  s7,t4,a1
  0x100001070: 10113c23 		sd  ra,280(sp)
  0x100001074: 11213023 		sd  s2,256(sp)
  0x100001078: 0d913423 		sd  s9,200(sp)
  0x10000107c: 0bb13c23 		sd  s11,184(sp)
  0x100001080: 003f4537 		lui  a0,0x3f4
  0x100001084: 00042803 		lw  a6,0(s0)
  0x100001088: 00000a13 		li  s4,0
  0x10000108c: 003f4637 		lui  a2,0x3f4
  0x100001090: 00f43423 		sd  a5,8(s0)
  0x100001094: f3f5051b 		addiw  a0,a0,-193 # 3f3f3f <i+0x3f3f1f>
  0x100001098: 000b8793 		mv  a5,s7
  0x10000109c: 000a8693 		mv  a3,s5
  0x1000010a0: 000d0c13 		mv  s8,s10
  0x1000010a4: 000a8b93 		mv  s7,s5
  0x1000010a8: 000b0d13 		mv  s10,s6
  0x1000010ac: 000a0a93 		mv  s5,s4
  0x1000010b0: 00098b13 		mv  s6,s3
  0x1000010b4: 00100f13 		li  t5,1
  0x1000010b8: fff00493 		li  s1,-1
  0x1000010bc: f3f60613 		addi  a2,a2,-193 # 3f3f3f <i+0x3f3f1f>
  0x1000010c0: 000e8993 		mv  s3,t4
  0x1000010c4: 0aa12623 		sw  a0,172(sp)
  0x1000010c8: 00078a13 		mv  s4,a5
  0x1000010cc: 000d0793 		mv  a5,s10
  0x1000010d0: 010d0733 		add  a4,s10,a6
  0x1000010d4: 01005863 		blez  a6,1000010e4 <bench_dinic_run+0xe0>

526 Basic Block: (0x1000010d8, 0x1000010e0)
  0x1000010d8: 00078023 		sb  zero,0(a5)
  0x1000010dc: 00178793 		addi  a5,a5,1
  0x1000010e0: fef71ce3 		bne  a4,a5,1000010d8 <bench_dinic_run+0xd4>

527 Basic Block: (0x1000010e4, 0x100001120)
  0x1000010e4: 00269793 		slli  a5,a3,0x2
  0x1000010e8: 00db2023 		sw  a3,0(s6)
  0x1000010ec: 00f987b3 		add  a5,s3,a5
  0x1000010f0: 0007a023 		sw  zero,0(a5)
  0x1000010f4: 00842783 		lw  a5,8(s0)
  0x1000010f8: 000b0893 		mv  a7,s6
  0x1000010fc: 00100313 		li  t1,1
  0x100001100: 00fd07b3 		add  a5,s10,a5
  0x100001104: 01e78023 		sb  t5,0(a5)
  0x100001108: 00000813 		li  a6,0
  0x10000110c: 0008a703 		lw  a4,0(a7)
  0x100001110: 0018081b 		addiw  a6,a6,1
  0x100001114: 00271713 		slli  a4,a4,0x2
  0x100001118: 00ec07b3 		add  a5,s8,a4
  0x10000111c: 0007a783 		lw  a5,0(a5)
  0x100001120: 06978863 		beq  a5,s1,100001190 <bench_dinic_run+0x18c>

528 Basic Block: (0x100001124, 0x10000114c)
  0x100001124: 01043f83 		ld  t6,16(s0)
  0x100001128: 02043e83 		ld  t4,32(s0)
  0x10000112c: 00e986b3 		add  a3,s3,a4
  0x100001130: 00479713 		slli  a4,a5,0x4
  0x100001134: 00ef8733 		add  a4,t6,a4
  0x100001138: 00472503 		lw  a0,4(a4)
  0x10000113c: 00279793 		slli  a5,a5,0x2
  0x100001140: 00fe87b3 		add  a5,t4,a5
  0x100001144: 00ad0e33 		add  t3,s10,a0
  0x100001148: 000e4283 		lbu  t0,0(t3)
  0x10000114c: 02029e63 		bnez  t0,100001188 <bench_dinic_run+0x184>

529 Basic Block: (0x100001150, 0x100001168)
  0x100001150: 00872383 		lw  t2,8(a4)
  0x100001154: 00c72283 		lw  t0,12(a4)
  0x100001158: 00251513 		slli  a0,a0,0x2
  0x10000115c: 00231913 		slli  s2,t1,0x2
  0x100001160: 00a98533 		add  a0,s3,a0
  0x100001164: 012b0933 		add  s2,s6,s2
  0x100001168: 0272d063 		bge  t0,t2,100001188 <bench_dinic_run+0x184>

530 Basic Block: (0x10000116c, 0x10000118c)
  0x10000116c: 0006a283 		lw  t0,0(a3)
  0x100001170: 01ee0023 		sb  t5,0(t3)
  0x100001174: 0013031b 		addiw  t1,t1,1
  0x100001178: 00128e1b 		addiw  t3,t0,1
  0x10000117c: 01c52023 		sw  t3,0(a0)
  0x100001180: 00472703 		lw  a4,4(a4)
  0x100001184: 00e92023 		sw  a4,0(s2)
  0x100001188: 0007a783 		lw  a5,0(a5)
  0x10000118c: fa9792e3 		bne  a5,s1,100001130 <bench_dinic_run+0x12c>

531 Basic Block: (0x100001130, 0x10000114c)
  0x100001130: 00479713 		slli  a4,a5,0x4
  0x100001134: 00ef8733 		add  a4,t6,a4
  0x100001138: 00472503 		lw  a0,4(a4)
  0x10000113c: 00279793 		slli  a5,a5,0x2
  0x100001140: 00fe87b3 		add  a5,t4,a5
  0x100001144: 00ad0e33 		add  t3,s10,a0
  0x100001148: 000e4283 		lbu  t0,0(t3)
  0x10000114c: 02029e63 		bnez  t0,100001188 <bench_dinic_run+0x184>

532 Basic Block: (0x100001190, 0x100001194)
  0x100001190: 00488893 		addi  a7,a7,4
  0x100001194: f6681ce3 		bne  a6,t1,10000110c <bench_dinic_run+0x108>

533 Basic Block: (0x10000110c, 0x100001120)
  0x10000110c: 0008a703 		lw  a4,0(a7)
  0x100001110: 0018081b 		addiw  a6,a6,1
  0x100001114: 00271713 		slli  a4,a4,0x2
  0x100001118: 00ec07b3 		add  a5,s8,a4
  0x10000111c: 0007a783 		lw  a5,0(a5)
  0x100001120: 06978863 		beq  a5,s1,100001190 <bench_dinic_run+0x18c>

534 Basic Block: (0x100001188, 0x10000118c)
  0x100001188: 0007a783 		lw  a5,0(a5)
  0x10000118c: fa9792e3 		bne  a5,s1,100001130 <bench_dinic_run+0x12c>

535 Basic Block: (0x10000114c, 0x10000114c)
  0x10000114c: 02029e63 		bnez  t0,100001188 <bench_dinic_run+0x184>

536 Basic Block: (0x100001198, 0x1000011a4)
  0x100001198: 00c42883 		lw  a7,12(s0)
  0x10000119c: 011d07b3 		add  a5,s10,a7
  0x1000011a0: 0007c783 		lbu  a5,0(a5)
  0x1000011a4: 4c078063 		beqz  a5,100001664 <bench_dinic_run+0x660>

537 Basic Block: (0x1000011a8, 0x1000011ac)
  0x1000011a8: 00042803 		lw  a6,0(s0)
  0x1000011ac: 03005863 		blez  a6,1000011dc <bench_dinic_run+0x1d8>

538 Basic Block: (0x1000011b0, 0x1000011d4)
  0x1000011b0: 03043683 		ld  a3,48(s0)
  0x1000011b4: 000c0713 		mv  a4,s8
  0x1000011b8: 00000793 		li  a5,0
  0x1000011bc: 00072503 		lw  a0,0(a4)
  0x1000011c0: 0017879b 		addiw  a5,a5,1
  0x1000011c4: 00470713 		addi  a4,a4,4
  0x1000011c8: 00a6a023 		sw  a0,0(a3)
  0x1000011cc: 00042803 		lw  a6,0(s0)
  0x1000011d0: 00468693 		addi  a3,a3,4
  0x1000011d4: ff07c4e3 		blt  a5,a6,1000011bc <bench_dinic_run+0x1b8>

539 Basic Block: (0x1000011bc, 0x1000011d4)
  0x1000011bc: 00072503 		lw  a0,0(a4)
  0x1000011c0: 0017879b 		addiw  a5,a5,1
  0x1000011c4: 00470713 		addi  a4,a4,4
  0x1000011c8: 00a6a023 		sw  a0,0(a3)
  0x1000011cc: 00042803 		lw  a6,0(s0)
  0x1000011d0: 00468693 		addi  a3,a3,4
  0x1000011d4: ff07c4e3 		blt  a5,a6,1000011bc <bench_dinic_run+0x1b8>

540 Basic Block: (0x1000011d8, 0x1000011dc)
  0x1000011d8: 00c42883 		lw  a7,12(s0)
  0x1000011dc: 471b8463 		beq  s7,a7,100001644 <bench_dinic_run+0x640>

541 Basic Block: (0x1000011e0, 0x1000011ec)
  0x1000011e0: 03043e83 		ld  t4,48(s0)
  0x1000011e4: 00be87b3 		add  a5,t4,a1
  0x1000011e8: 0007a903 		lw  s2,0(a5)
  0x1000011ec: 40990e63 		beq  s2,s1,100001608 <bench_dinic_run+0x604>

542 Basic Block: (0x1000011f0, 0x10000121c)
  0x1000011f0: 00060c93 		mv  s9,a2
  0x1000011f4: 01513423 		sd  s5,8(sp)
  0x1000011f8: 00060f93 		mv  t6,a2
  0x1000011fc: 01043d83 		ld  s11,16(s0)
  0x100001200: 000d0613 		mv  a2,s10
  0x100001204: 00000793 		li  a5,0
  0x100001208: 01713023 		sd  s7,0(sp)
  0x10000120c: 000e8293 		mv  t0,t4
  0x100001210: 00b13823 		sd  a1,16(sp)
  0x100001214: 000c0a93 		mv  s5,s8
  0x100001218: 000b0d13 		mv  s10,s6
  0x10000121c: 0180006f 		j  100001234 <bench_dinic_run+0x230>

543 Basic Block: (0x100001234, 0x100001254)
  0x100001234: 00491b93 		slli  s7,s2,0x4
  0x100001238: 017d8bb3 		add  s7,s11,s7
  0x10000123c: 004ba303 		lw  t1,4(s7)
  0x100001240: 000a2703 		lw  a4,0(s4)
  0x100001244: 00231593 		slli  a1,t1,0x2
  0x100001248: 00b98c33 		add  s8,s3,a1
  0x10000124c: 000c2683 		lw  a3,0(s8)
  0x100001250: 0017071b 		addiw  a4,a4,1
  0x100001254: fcd716e3 		bne  a4,a3,100001220 <bench_dinic_run+0x21c>

544 Basic Block: (0x100001258, 0x100001268)
  0x100001258: 008ba703 		lw  a4,8(s7)
  0x10000125c: 00cbae03 		lw  t3,12(s7)
  0x100001260: 41c70e3b 		subw  t3,a4,t3
  0x100001264: 000e0713 		mv  a4,t3
  0x100001268: 01ccd463 		bge  s9,t3,100001270 <bench_dinic_run+0x26c>

545 Basic Block: (0x100001270, 0x100001270)
  0x100001270: 3d130663 		beq  t1,a7,10000163c <bench_dinic_run+0x638>

546 Basic Block: (0x100001274, 0x100001274)
  0x100001274: fa0706e3 		beqz  a4,100001220 <bench_dinic_run+0x21c>

547 Basic Block: (0x100001278, 0x100001280)
  0x100001278: 00b285b3 		add  a1,t0,a1
  0x10000127c: 0005ab03 		lw  s6,0(a1)
  0x100001280: fa9b00e3 		beq  s6,s1,100001220 <bench_dinic_run+0x21c>

548 Basic Block: (0x100001284, 0x1000012b8)
  0x100001284: 03713023 		sd  s7,32(sp)
  0x100001288: 02f13823 		sd  a5,48(sp)
  0x10000128c: 00060393 		mv  t2,a2
  0x100001290: 000a0813 		mv  a6,s4
  0x100001294: 000d0613 		mv  a2,s10
  0x100001298: 00098a13 		mv  s4,s3
  0x10000129c: 00000593 		li  a1,0
  0x1000012a0: 01913c23 		sd  s9,24(sp)
  0x1000012a4: 000c0b93 		mv  s7,s8
  0x1000012a8: 03213423 		sd  s2,40(sp)
  0x1000012ac: 00070d13 		mv  s10,a4
  0x1000012b0: 00068793 		mv  a5,a3
  0x1000012b4: 00040993 		mv  s3,s0
  0x1000012b8: 01c0006f 		j  1000012d4 <bench_dinic_run+0x2d0>

549 Basic Block: (0x1000012d4, 0x1000012f0)
  0x1000012d4: 004b1c93 		slli  s9,s6,0x4
  0x1000012d8: 019d8cb3 		add  s9,s11,s9
  0x1000012dc: 004ca903 		lw  s2,4(s9)
  0x1000012e0: 0017879b 		addiw  a5,a5,1
  0x1000012e4: 00291713 		slli  a4,s2,0x2
  0x1000012e8: 00ea0433 		add  s0,s4,a4
  0x1000012ec: 00042e03 		lw  t3,0(s0)
  0x1000012f0: fdc796e3 		bne  a5,t3,1000012bc <bench_dinic_run+0x2b8>

550 Basic Block: (0x1000012bc, 0x1000012cc)
  0x1000012bc: 0209b783 		ld  a5,32(s3)
  0x1000012c0: 002b1b13 		slli  s6,s6,0x2
  0x1000012c4: 016787b3 		add  a5,a5,s6
  0x1000012c8: 0007ab03 		lw  s6,0(a5)
  0x1000012cc: 2a9b0e63 		beq  s6,s1,100001588 <bench_dinic_run+0x584>

551 Basic Block: (0x1000012d0, 0x1000012f0)
  0x1000012d0: 000ba783 		lw  a5,0(s7)
  0x1000012d4: 004b1c93 		slli  s9,s6,0x4
  0x1000012d8: 019d8cb3 		add  s9,s11,s9
  0x1000012dc: 004ca903 		lw  s2,4(s9)
  0x1000012e0: 0017879b 		addiw  a5,a5,1
  0x1000012e4: 00291713 		slli  a4,s2,0x2
  0x1000012e8: 00ea0433 		add  s0,s4,a4
  0x1000012ec: 00042e03 		lw  t3,0(s0)
  0x1000012f0: fdc796e3 		bne  a5,t3,1000012bc <bench_dinic_run+0x2b8>

552 Basic Block: (0x1000012f4, 0x100001304)
  0x1000012f4: 00cca783 		lw  a5,12(s9)
  0x1000012f8: 008cac03 		lw  s8,8(s9)
  0x1000012fc: 40fc0c3b 		subw  s8,s8,a5
  0x100001300: 000c0793 		mv  a5,s8
  0x100001304: 018d5463 		bge  s10,s8,10000130c <bench_dinic_run+0x308>

553 Basic Block: (0x10000130c, 0x10000130c)
  0x10000130c: 35190463 		beq  s2,a7,100001654 <bench_dinic_run+0x650>

554 Basic Block: (0x100001310, 0x100001310)
  0x100001310: fa0786e3 		beqz  a5,1000012bc <bench_dinic_run+0x2b8>

555 Basic Block: (0x100001314, 0x10000131c)
  0x100001314: 00e28733 		add  a4,t0,a4
  0x100001318: 00072903 		lw  s2,0(a4)
  0x10000131c: fa9900e3 		beq  s2,s1,1000012bc <bench_dinic_run+0x2b8>

556 Basic Block: (0x100001320, 0x100001350)
  0x100001320: 00000c13 		li  s8,0
  0x100001324: 02b13c23 		sd  a1,56(sp)
  0x100001328: 000b0e93 		mv  t4,s6
  0x10000132c: 00038593 		mv  a1,t2
  0x100001330: 000b8693 		mv  a3,s7
  0x100001334: 000d0393 		mv  t2,s10
  0x100001338: 000c8313 		mv  t1,s9
  0x10000133c: 000c0d13 		mv  s10,s8
  0x100001340: 00098b13 		mv  s6,s3
  0x100001344: 000a0c13 		mv  s8,s4
  0x100001348: 000a8713 		mv  a4,s5
  0x10000134c: 00040a13 		mv  s4,s0
  0x100001350: 01c0006f 		j  10000136c <bench_dinic_run+0x368>

557 Basic Block: (0x10000136c, 0x100001388)
  0x10000136c: 00491993 		slli  s3,s2,0x4
  0x100001370: 013d89b3 		add  s3,s11,s3
  0x100001374: 0049a403 		lw  s0,4(s3)
  0x100001378: 001e0b9b 		addiw  s7,t3,1
  0x10000137c: 00241e13 		slli  t3,s0,0x2
  0x100001380: 01cc0ab3 		add  s5,s8,t3
  0x100001384: 000aa503 		lw  a0,0(s5)
  0x100001388: fcab96e3 		bne  s7,a0,100001354 <bench_dinic_run+0x350>

558 Basic Block: (0x10000138c, 0x10000139c)
  0x10000138c: 00c9ab83 		lw  s7,12(s3)
  0x100001390: 0089ac83 		lw  s9,8(s3)
  0x100001394: 417c8cbb 		subw  s9,s9,s7
  0x100001398: 000c8b93 		mv  s7,s9
  0x10000139c: 0197d463 		bge  a5,s9,1000013a4 <bench_dinic_run+0x3a0>

559 Basic Block: (0x1000013a0, 0x1000013a4)
  0x1000013a0: 00078b9b 		sext.w  s7,a5
  0x1000013a4: 2b140c63 		beq  s0,a7,10000165c <bench_dinic_run+0x658>

560 Basic Block: (0x10000165c, 0x100001660)
  0x10000165c: 000b8c93 		mv  s9,s7
  0x100001660: e99ff06f 		j  1000014f8 <bench_dinic_run+0x4f4>

561 Basic Block: (0x1000014f8, 0x1000014f8)
  0x1000014f8: e5905ee3 		blez  s9,100001354 <bench_dinic_run+0x350>

562 Basic Block: (0x1000014fc, 0x100001528)
  0x1000014fc: 00c9ae03 		lw  t3,12(s3)
  0x100001500: 00194513 		xori  a0,s2,1
  0x100001504: 00451513 		slli  a0,a0,0x4
  0x100001508: 019e0e3b 		addw  t3,t3,s9
  0x10000150c: 01c9a623 		sw  t3,12(s3)
  0x100001510: 00ad8533 		add  a0,s11,a0
  0x100001514: 00c52e03 		lw  t3,12(a0)
  0x100001518: 419787bb 		subw  a5,a5,s9
  0x10000151c: 01ac8d3b 		addw  s10,s9,s10
  0x100001520: 419e0e3b 		subw  t3,t3,s9
  0x100001524: 01c52623 		sw  t3,12(a0)
  0x100001528: e20796e3 		bnez  a5,100001354 <bench_dinic_run+0x350>

563 Basic Block: (0x10000152c, 0x100001554)
  0x10000152c: 000c0a13 		mv  s4,s8
  0x100001530: 000d0c13 		mv  s8,s10
  0x100001534: 00038d13 		mv  s10,t2
  0x100001538: 00058393 		mv  t2,a1
  0x10000153c: 03813583 		ld  a1,56(sp)
  0x100001540: 000b0993 		mv  s3,s6
  0x100001544: 00068b93 		mv  s7,a3
  0x100001548: 00030c93 		mv  s9,t1
  0x10000154c: 000e8b13 		mv  s6,t4
  0x100001550: 00070a93 		mv  s5,a4
  0x100001554: d78054e3 		blez  s8,1000012bc <bench_dinic_run+0x2b8>

564 Basic Block: (0x100001558, 0x100001584)
  0x100001558: 00cca703 		lw  a4,12(s9)
  0x10000155c: 001b4793 		xori  a5,s6,1
  0x100001560: 00479793 		slli  a5,a5,0x4
  0x100001564: 0187073b 		addw  a4,a4,s8
  0x100001568: 00eca623 		sw  a4,12(s9)
  0x10000156c: 00fd87b3 		add  a5,s11,a5
  0x100001570: 00c7a703 		lw  a4,12(a5)
  0x100001574: 418d0d3b 		subw  s10,s10,s8
  0x100001578: 018585bb 		addw  a1,a1,s8
  0x10000157c: 4187073b 		subw  a4,a4,s8
  0x100001580: 00e7a623 		sw  a4,12(a5)
  0x100001584: d20d1ce3 		bnez  s10,1000012bc <bench_dinic_run+0x2b8>

565 Basic Block: (0x100001308, 0x10000130c)
  0x100001308: 000d079b 		sext.w  a5,s10
  0x10000130c: 35190463 		beq  s2,a7,100001654 <bench_dinic_run+0x650>

566 Basic Block: (0x100001588, 0x1000015ac)
  0x100001588: 01813c83 		ld  s9,24(sp)
  0x10000158c: 02013b83 		ld  s7,32(sp)
  0x100001590: 02813903 		ld  s2,40(sp)
  0x100001594: 03013783 		ld  a5,48(sp)
  0x100001598: 00098413 		mv  s0,s3
  0x10000159c: 00060d13 		mv  s10,a2
  0x1000015a0: 000a0993 		mv  s3,s4
  0x1000015a4: 00038613 		mv  a2,t2
  0x1000015a8: 00080a13 		mv  s4,a6
  0x1000015ac: c6b05ae3 		blez  a1,100001220 <bench_dinic_run+0x21c>

567 Basic Block: (0x1000015b0, 0x1000015e0)
  0x1000015b0: 00cba683 		lw  a3,12(s7)
  0x1000015b4: 00194713 		xori  a4,s2,1
  0x1000015b8: 00471713 		slli  a4,a4,0x4
  0x1000015bc: 00b686bb 		addw  a3,a3,a1
  0x1000015c0: 00dba623 		sw  a3,12(s7)
  0x1000015c4: 00ed8733 		add  a4,s11,a4
  0x1000015c8: 00c72683 		lw  a3,12(a4)
  0x1000015cc: 00f5833b 		addw  t1,a1,a5
  0x1000015d0: 40bc8cbb 		subw  s9,s9,a1
  0x1000015d4: 40b687bb 		subw  a5,a3,a1
  0x1000015d8: 00f72623 		sw  a5,12(a4)
  0x1000015dc: 0003079b 		sext.w  a5,t1
  0x1000015e0: c40c90e3 		bnez  s9,100001220 <bench_dinic_run+0x21c>

568 Basic Block: (0x100001220, 0x100001230)
  0x100001220: 02043703 		ld  a4,32(s0)
  0x100001224: 00291913 		slli  s2,s2,0x2
  0x100001228: 01270733 		add  a4,a4,s2
  0x10000122c: 00072903 		lw  s2,0(a4)
  0x100001230: 3e990063 		beq  s2,s1,100001610 <bench_dinic_run+0x60c>

569 Basic Block: (0x1000013a4, 0x1000013a4)
  0x1000013a4: 2b140c63 		beq  s0,a7,10000165c <bench_dinic_run+0x658>

570 Basic Block: (0x100001354, 0x100001364)
  0x100001354: 020b3503 		ld  a0,32(s6)
  0x100001358: 00291913 		slli  s2,s2,0x2
  0x10000135c: 01250533 		add  a0,a0,s2
  0x100001360: 00052903 		lw  s2,0(a0)
  0x100001364: 1c990463 		beq  s2,s1,10000152c <bench_dinic_run+0x528>

571 Basic Block: (0x100001368, 0x100001388)
  0x100001368: 000a2e03 		lw  t3,0(s4)
  0x10000136c: 00491993 		slli  s3,s2,0x4
  0x100001370: 013d89b3 		add  s3,s11,s3
  0x100001374: 0049a403 		lw  s0,4(s3)
  0x100001378: 001e0b9b 		addiw  s7,t3,1
  0x10000137c: 00241e13 		slli  t3,s0,0x2
  0x100001380: 01cc0ab3 		add  s5,s8,t3
  0x100001384: 000aa503 		lw  a0,0(s5)
  0x100001388: fcab96e3 		bne  s7,a0,100001354 <bench_dinic_run+0x350>

572 Basic Block: (0x100001304, 0x100001304)
  0x100001304: 018d5463 		bge  s10,s8,10000130c <bench_dinic_run+0x308>

573 Basic Block: (0x100001388, 0x100001388)
  0x100001388: fcab96e3 		bne  s7,a0,100001354 <bench_dinic_run+0x350>

574 Basic Block: (0x100001364, 0x100001364)
  0x100001364: 1c990463 		beq  s2,s1,10000152c <bench_dinic_run+0x528>

575 Basic Block: (0x100001528, 0x100001528)
  0x100001528: e20796e3 		bnez  a5,100001354 <bench_dinic_run+0x350>

576 Basic Block: (0x100001660, 0x100001660)
  0x100001660: e99ff06f 		j  1000014f8 <bench_dinic_run+0x4f4>

577 Basic Block: (0x100001584, 0x100001584)
  0x100001584: d20d1ce3 		bnez  s10,1000012bc <bench_dinic_run+0x2b8>

578 Basic Block: (0x10000139c, 0x10000139c)
  0x10000139c: 0197d463 		bge  a5,s9,1000013a4 <bench_dinic_run+0x3a0>

579 Basic Block: (0x100001350, 0x100001350)
  0x100001350: 01c0006f 		j  10000136c <bench_dinic_run+0x368>

580 Basic Block: (0x100001554, 0x100001554)
  0x100001554: d78054e3 		blez  s8,1000012bc <bench_dinic_run+0x2b8>

581 Basic Block: (0x1000012cc, 0x1000012cc)
  0x1000012cc: 2a9b0e63 		beq  s6,s1,100001588 <bench_dinic_run+0x584>

582 Basic Block: (0x1000012f0, 0x1000012f0)
  0x1000012f0: fdc796e3 		bne  a5,t3,1000012bc <bench_dinic_run+0x2b8>

583 Basic Block: (0x100001610, 0x100001638)
  0x100001610: 000a8c13 		mv  s8,s5
  0x100001614: 00813a83 		ld  s5,8(sp)
  0x100001618: 000d0b13 		mv  s6,s10
  0x10000161c: 00013b83 		ld  s7,0(sp)
  0x100001620: 00060d13 		mv  s10,a2
  0x100001624: 01013583 		ld  a1,16(sp)
  0x100001628: 00042803 		lw  a6,0(s0)
  0x10000162c: 00842683 		lw  a3,8(s0)
  0x100001630: 000f8613 		mv  a2,t6
  0x100001634: 00fa8abb 		addw  s5,s5,a5
  0x100001638: a95ff06f 		j  1000010cc <bench_dinic_run+0xc8>

584 Basic Block: (0x1000010cc, 0x1000010d4)
  0x1000010cc: 000d0793 		mv  a5,s10
  0x1000010d0: 010d0733 		add  a4,s10,a6
  0x1000010d4: 01005863 		blez  a6,1000010e4 <bench_dinic_run+0xe0>

585 Basic Block: (0x100001168, 0x100001168)
  0x100001168: 0272d063 		bge  t0,t2,100001188 <bench_dinic_run+0x184>

586 Basic Block: (0x100001120, 0x100001120)
  0x100001120: 06978863 		beq  a5,s1,100001190 <bench_dinic_run+0x18c>

587 Basic Block: (0x1000013a8, 0x1000013a8)
  0x1000013a8: fa0b86e3 		beqz  s7,100001354 <bench_dinic_run+0x350>

588 Basic Block: (0x1000013ac, 0x1000013b4)
  0x1000013ac: 01c28e33 		add  t3,t0,t3
  0x1000013b0: 000e2403 		lw  s0,0(t3)
  0x1000013b4: fa9400e3 		beq  s0,s1,100001354 <bench_dinic_run+0x350>

589 Basic Block: (0x1000013b8, 0x100001418)
  0x1000013b8: 00000c93 		li  s9,0
  0x1000013bc: 07413023 		sd  s4,96(sp)
  0x1000013c0: 07313c23 		sd  s3,120(sp)
  0x1000013c4: 000a8a13 		mv  s4,s5
  0x1000013c8: 00040993 		mv  s3,s0
  0x1000013cc: 09213023 		sd  s2,128(sp)
  0x1000013d0: 000b0413 		mv  s0,s6
  0x1000013d4: 000b8913 		mv  s2,s7
  0x1000013d8: 000c8a93 		mv  s5,s9
  0x1000013dc: 08c13823 		sd  a2,144(sp)
  0x1000013e0: 000d8b93 		mv  s7,s11
  0x1000013e4: 04513023 		sd  t0,64(sp)
  0x1000013e8: 04d13423 		sd  a3,72(sp)
  0x1000013ec: 04f13823 		sd  a5,80(sp)
  0x1000013f0: 04613c23 		sd  t1,88(sp)
  0x1000013f4: 07d13423 		sd  t4,104(sp)
  0x1000013f8: 06713823 		sd  t2,112(sp)
  0x1000013fc: 08b13423 		sd  a1,136(sp)
  0x100001400: 000c0b13 		mv  s6,s8
  0x100001404: 08e13c23 		sd  a4,152(sp)
  0x100001408: 0b113023 		sd  a7,160(sp)
  0x10000140c: 00050613 		mv  a2,a0
  0x100001410: 00080c93 		mv  s9,a6
  0x100001414: 000f8d93 		mv  s11,t6
  0x100001418: 01c0006f 		j  100001434 <bench_dinic_run+0x430>

590 Basic Block: (0x100001434, 0x100001450)
  0x100001434: 00499713 		slli  a4,s3,0x4
  0x100001438: 00eb8c33 		add  s8,s7,a4
  0x10000143c: 004c2583 		lw  a1,4(s8)
  0x100001440: 0016061b 		addiw  a2,a2,1
  0x100001444: 00259693 		slli  a3,a1,0x2
  0x100001448: 00db06b3 		add  a3,s6,a3
  0x10000144c: 0006a683 		lw  a3,0(a3)
  0x100001450: fcd616e3 		bne  a2,a3,10000141c <bench_dinic_run+0x418>

591 Basic Block: (0x10000141c, 0x10000142c)
  0x10000141c: 02043703 		ld  a4,32(s0)
  0x100001420: 00299793 		slli  a5,s3,0x2
  0x100001424: 00f707b3 		add  a5,a4,a5
  0x100001428: 0007a983 		lw  s3,0(a5)
  0x10000142c: 08998063 		beq  s3,s1,1000014ac <bench_dinic_run+0x4a8>

592 Basic Block: (0x100001430, 0x100001450)
  0x100001430: 000a2603 		lw  a2,0(s4)
  0x100001434: 00499713 		slli  a4,s3,0x4
  0x100001438: 00eb8c33 		add  s8,s7,a4
  0x10000143c: 004c2583 		lw  a1,4(s8)
  0x100001440: 0016061b 		addiw  a2,a2,1
  0x100001444: 00259693 		slli  a3,a1,0x2
  0x100001448: 00db06b3 		add  a3,s6,a3
  0x10000144c: 0006a683 		lw  a3,0(a3)
  0x100001450: fcd616e3 		bne  a2,a3,10000141c <bench_dinic_run+0x418>

593 Basic Block: (0x100001454, 0x100001468)
  0x100001454: 008c2603 		lw  a2,8(s8)
  0x100001458: 00cc2683 		lw  a3,12(s8)
  0x10000145c: 00040513 		mv  a0,s0
  0x100001460: 40d606bb 		subw  a3,a2,a3
  0x100001464: 00068613 		mv  a2,a3
  0x100001468: 00d95463 		bge  s2,a3,100001470 <bench_dinic_run+0x46c>

594 Basic Block: (0x100001470, 0x100001470)
  0x100001470: 1b1020ef 		jal  100003e20 <_ZN5Dinic3DFSEii>

595 Basic Block: (0x100003e20, 0x100003e34)
  0x100003e20: 00c52783 		lw  a5,12(a0)
  0x100003e24: e5010113 		addi  sp,sp,-432
  0x100003e28: 1a113423 		sd  ra,424(sp)
  0x100003e2c: 17513c23 		sd  s5,376(sp)
  0x100003e30: 00f13423 		sd  a5,8(sp)
  0x100003e34: 10b782e3 		beq  a5,a1,100004738 <_ZN5Dinic3DFSEii+0x918>

596 Basic Block: (0x100003e38, 0x100003e40)
  0x100003e38: 00050893 		mv  a7,a0
  0x100003e3c: 00000513 		li  a0,0
  0x100003e40: 0e0604e3 		beqz  a2,100004728 <_ZN5Dinic3DFSEii+0x908>

597 Basic Block: (0x100004728, 0x100004734)
  0x100004728: 1a813083 		ld  ra,424(sp)
  0x10000472c: 17813a83 		ld  s5,376(sp)
  0x100004730: 1b010113 		addi  sp,sp,432
  0x100004734: 00008067 		ret

598 Basic Block: (0x100001474, 0x100001484)
  0x100001474: 0019c693 		xori  a3,s3,1
  0x100001478: 00469693 		slli  a3,a3,0x4
  0x10000147c: 00db86b3 		add  a3,s7,a3
  0x100001480: 00100f13 		li  t5,1
  0x100001484: f8a05ce3 		blez  a0,10000141c <bench_dinic_run+0x418>

599 Basic Block: (0x100003e44, 0x100003e60)
  0x100003e44: 0308b703 		ld  a4,48(a7) # 1030 <i+0x1010>
  0x100003e48: 00259593 		slli  a1,a1,0x2
  0x100003e4c: 15a13823 		sd  s10,336(sp)
  0x100003e50: 00e13c23 		sd  a4,24(sp)
  0x100003e54: 00b70733 		add  a4,a4,a1
  0x100003e58: 00072d03 		lw  s10,0(a4)
  0x100003e5c: fff00793 		li  a5,-1
  0x100003e60: 0efd0ae3 		beq  s10,a5,100004754 <_ZN5Dinic3DFSEii+0x934>

600 Basic Block: (0x100003e64, 0x100003ea8)
  0x100003e64: 0288be83 		ld  t4,40(a7)
  0x100003e68: 0108b283 		ld  t0,16(a7)
  0x100003e6c: 15913c23 		sd  s9,344(sp)
  0x100003e70: 00be8cb3 		add  s9,t4,a1
  0x100003e74: 1a813023 		sd  s0,416(sp)
  0x100003e78: 18913c23 		sd  s1,408(sp)
  0x100003e7c: 17613823 		sd  s6,368(sp)
  0x100003e80: 15b13423 		sd  s11,328(sp)
  0x100003e84: 00088413 		mv  s0,a7
  0x100003e88: 19213823 		sd  s2,400(sp)
  0x100003e8c: 000e8893 		mv  a7,t4
  0x100003e90: 19313423 		sd  s3,392(sp)
  0x100003e94: 17713423 		sd  s7,360(sp)
  0x100003e98: 000c8d93 		mv  s11,s9
  0x100003e9c: 00050493 		mv  s1,a0
  0x100003ea0: 00028e93 		mv  t4,t0
  0x100003ea4: 00060b13 		mv  s6,a2
  0x100003ea8: 01c0006f 		j  100003ec4 <_ZN5Dinic3DFSEii+0xa4>

601 Basic Block: (0x100003ec4, 0x100003ee4)
  0x100003ec4: 004d1793 		slli  a5,s10,0x4
  0x100003ec8: 00fe8bb3 		add  s7,t4,a5
  0x100003ecc: 004ba603 		lw  a2,4(s7)
  0x100003ed0: 000da703 		lw  a4,0(s11)
  0x100003ed4: 00261693 		slli  a3,a2,0x2
  0x100003ed8: 00d88cb3 		add  s9,a7,a3
  0x100003edc: 000ca783 		lw  a5,0(s9)
  0x100003ee0: 0017071b 		addiw  a4,a4,1
  0x100003ee4: fcf714e3 		bne  a4,a5,100003eac <_ZN5Dinic3DFSEii+0x8c>

602 Basic Block: (0x100003ee8, 0x100003ef8)
  0x100003ee8: 008ba703 		lw  a4,8(s7)
  0x100003eec: 00cba583 		lw  a1,12(s7)
  0x100003ef0: 40b705bb 		subw  a1,a4,a1
  0x100003ef4: 00058713 		mv  a4,a1
  0x100003ef8: 00bb5463 		bge  s6,a1,100003f00 <_ZN5Dinic3DFSEii+0xe0>

603 Basic Block: (0x100003efc, 0x100003f08)
  0x100003efc: 000b0713 		mv  a4,s6
  0x100003f00: 0007099b 		sext.w  s3,a4
  0x100003f04: 00813703 		ld  a4,8(sp)
  0x100003f08: 04c70ae3 		beq  a4,a2,10000475c <_ZN5Dinic3DFSEii+0x93c>

604 Basic Block: (0x10000475c, 0x100004760)
  0x10000475c: 00098913 		mv  s2,s3
  0x100004760: f6dff06f 		j  1000046cc <_ZN5Dinic3DFSEii+0x8ac>

605 Basic Block: (0x1000046cc, 0x1000046cc)
  0x1000046cc: ff205063 		blez  s2,100003eac <_ZN5Dinic3DFSEii+0x8c>

606 Basic Block: (0x1000046d0, 0x1000046fc)
  0x1000046d0: 00cba703 		lw  a4,12(s7)
  0x1000046d4: 001d4793 		xori  a5,s10,1
  0x1000046d8: 00479793 		slli  a5,a5,0x4
  0x1000046dc: 0127073b 		addw  a4,a4,s2
  0x1000046e0: 00eba623 		sw  a4,12(s7)
  0x1000046e4: 00fe87b3 		add  a5,t4,a5
  0x1000046e8: 00c7a703 		lw  a4,12(a5)
  0x1000046ec: 412b0b3b 		subw  s6,s6,s2
  0x1000046f0: 009904bb 		addw  s1,s2,s1
  0x1000046f4: 4127073b 		subw  a4,a4,s2
  0x1000046f8: 00e7a623 		sw  a4,12(a5)
  0x1000046fc: fa0b1863 		bnez  s6,100003eac <_ZN5Dinic3DFSEii+0x8c>

607 Basic Block: (0x100004700, 0x100004734)
  0x100004700: 00048513 		mv  a0,s1
  0x100004704: 1a013403 		ld  s0,416(sp)
  0x100004708: 19813483 		ld  s1,408(sp)
  0x10000470c: 19013903 		ld  s2,400(sp)
  0x100004710: 18813983 		ld  s3,392(sp)
  0x100004714: 17013b03 		ld  s6,368(sp)
  0x100004718: 16813b83 		ld  s7,360(sp)
  0x10000471c: 15813c83 		ld  s9,344(sp)
  0x100004720: 15013d03 		ld  s10,336(sp)
  0x100004724: 14813d83 		ld  s11,328(sp)
  0x100004728: 1a813083 		ld  ra,424(sp)
  0x10000472c: 17813a83 		ld  s5,376(sp)
  0x100004730: 1b010113 		addi  sp,sp,432
  0x100004734: 00008067 		ret

608 Basic Block: (0x100001488, 0x1000014a8)
  0x100001488: 00cc2603 		lw  a2,12(s8)
  0x10000148c: 40a9093b 		subw  s2,s2,a0
  0x100001490: 01550abb 		addw  s5,a0,s5
  0x100001494: 00a6063b 		addw  a2,a2,a0
  0x100001498: 00cc2623 		sw  a2,12(s8)
  0x10000149c: 00c6a703 		lw  a4,12(a3)
  0x1000014a0: 40a7073b 		subw  a4,a4,a0
  0x1000014a4: 00e6a623 		sw  a4,12(a3)
  0x1000014a8: f6091ae3 		bnez  s2,10000141c <bench_dinic_run+0x418>

609 Basic Block: (0x10000146c, 0x100001470)
  0x10000146c: 0009061b 		sext.w  a2,s2
  0x100001470: 1b1020ef 		jal  100003e20 <_ZN5Dinic3DFSEii>

610 Basic Block: (0x1000014ac, 0x1000014f8)
  0x1000014ac: 04013283 		ld  t0,64(sp)
  0x1000014b0: 04813683 		ld  a3,72(sp)
  0x1000014b4: 05013783 		ld  a5,80(sp)
  0x1000014b8: 05813303 		ld  t1,88(sp)
  0x1000014bc: 06013a03 		ld  s4,96(sp)
  0x1000014c0: 06813e83 		ld  t4,104(sp)
  0x1000014c4: 07013383 		ld  t2,112(sp)
  0x1000014c8: 07813983 		ld  s3,120(sp)
  0x1000014cc: 08013903 		ld  s2,128(sp)
  0x1000014d0: 08813583 		ld  a1,136(sp)
  0x1000014d4: 09013603 		ld  a2,144(sp)
  0x1000014d8: 09813703 		ld  a4,152(sp)
  0x1000014dc: 0a013883 		ld  a7,160(sp)
  0x1000014e0: 000b0c13 		mv  s8,s6
  0x1000014e4: 000c8813 		mv  a6,s9
  0x1000014e8: 000d8f93 		mv  t6,s11
  0x1000014ec: 00040b13 		mv  s6,s0
  0x1000014f0: 000a8c93 		mv  s9,s5
  0x1000014f4: 000b8d93 		mv  s11,s7
  0x1000014f8: e5905ee3 		blez  s9,100001354 <bench_dinic_run+0x350>

611 Basic Block: (0x100001468, 0x100001468)
  0x100001468: 00d95463 		bge  s2,a3,100001470 <bench_dinic_run+0x46c>

612 Basic Block: (0x100003e40, 0x100003e40)
  0x100003e40: 0e0604e3 		beqz  a2,100004728 <_ZN5Dinic3DFSEii+0x908>

613 Basic Block: (0x10000142c, 0x10000142c)
  0x10000142c: 08998063 		beq  s3,s1,1000014ac <bench_dinic_run+0x4a8>

614 Basic Block: (0x100001484, 0x100001484)
  0x100001484: f8a05ce3 		blez  a0,10000141c <bench_dinic_run+0x418>

615 Basic Block: (0x100001450, 0x100001450)
  0x100001450: fcd616e3 		bne  a2,a3,10000141c <bench_dinic_run+0x418>

616 Basic Block: (0x100003e34, 0x100003e34)
  0x100003e34: 10b782e3 		beq  a5,a1,100004738 <_ZN5Dinic3DFSEii+0x918>

617 Basic Block: (0x100003f00, 0x100003f08)
  0x100003f00: 0007099b 		sext.w  s3,a4
  0x100003f04: 00813703 		ld  a4,8(sp)
  0x100003f08: 04c70ae3 		beq  a4,a2,10000475c <_ZN5Dinic3DFSEii+0x93c>

618 Basic Block: (0x100003eac, 0x100003ec0)
  0x100003eac: 02043783 		ld  a5,32(s0)
  0x100003eb0: 002d1713 		slli  a4,s10,0x2
  0x100003eb4: 00e787b3 		add  a5,a5,a4
  0x100003eb8: 0007ad03 		lw  s10,0(a5)
  0x100003ebc: fff00793 		li  a5,-1
  0x100003ec0: 04fd00e3 		beq  s10,a5,100004700 <_ZN5Dinic3DFSEii+0x8e0>

619 Basic Block: (0x100003f0c, 0x100003f0c)
  0x100003f0c: fa0980e3 		beqz  s3,100003eac <_ZN5Dinic3DFSEii+0x8c>

620 Basic Block: (0x100003ec0, 0x100003ec0)
  0x100003ec0: 04fd00e3 		beq  s10,a5,100004700 <_ZN5Dinic3DFSEii+0x8e0>

621 Basic Block: (0x100004734, 0x100004734)
  0x100004734: 00008067 		ret

622 Basic Block: (0x100003f10, 0x100003f20)
  0x100003f10: 01813703 		ld  a4,24(sp)
  0x100003f14: 00d706b3 		add  a3,a4,a3
  0x100003f18: 0006aa83 		lw  s5,0(a3)
  0x100003f1c: fff00713 		li  a4,-1
  0x100003f20: f8ea86e3 		beq  s5,a4,100003eac <_ZN5Dinic3DFSEii+0x8c>

623 Basic Block: (0x100003f24, 0x100003f54)
  0x100003f24: 05b13023 		sd  s11,64(sp)
  0x100003f28: 00040393 		mv  t2,s0
  0x100003f2c: 00000913 		li  s2,0
  0x100003f30: fff00293 		li  t0,-1
  0x100003f34: 03713823 		sd  s7,48(sp)
  0x100003f38: 03a13c23 		sd  s10,56(sp)
  0x100003f3c: 000e8f93 		mv  t6,t4
  0x100003f40: 00088e13 		mv  t3,a7
  0x100003f44: 000c8d93 		mv  s11,s9
  0x100003f48: 04913423 		sd  s1,72(sp)
  0x100003f4c: 00098413 		mv  s0,s3
  0x100003f50: 05613823 		sd  s6,80(sp)
  0x100003f54: 01c0006f 		j  100003f70 <_ZN5Dinic3DFSEii+0x150>

624 Basic Block: (0x100003f70, 0x100003f8c)
  0x100003f70: 004a9693 		slli  a3,s5,0x4
  0x100003f74: 00df8bb3 		add  s7,t6,a3
  0x100003f78: 004ba503 		lw  a0,4(s7)
  0x100003f7c: 0017879b 		addiw  a5,a5,1
  0x100003f80: 00251593 		slli  a1,a0,0x2
  0x100003f84: 00be0cb3 		add  s9,t3,a1
  0x100003f88: 000ca683 		lw  a3,0(s9)
  0x100003f8c: fcd796e3 		bne  a5,a3,100003f58 <_ZN5Dinic3DFSEii+0x138>

625 Basic Block: (0x100003f58, 0x100003f68)
  0x100003f58: 0203b783 		ld  a5,32(t2)
  0x100003f5c: 002a9693 		slli  a3,s5,0x2
  0x100003f60: 00d787b3 		add  a5,a5,a3
  0x100003f64: 0007aa83 		lw  s5,0(a5)
  0x100003f68: 745a8263 		beq  s5,t0,1000046ac <_ZN5Dinic3DFSEii+0x88c>

626 Basic Block: (0x100003f6c, 0x100003f8c)
  0x100003f6c: 000da783 		lw  a5,0(s11)
  0x100003f70: 004a9693 		slli  a3,s5,0x4
  0x100003f74: 00df8bb3 		add  s7,t6,a3
  0x100003f78: 004ba503 		lw  a0,4(s7)
  0x100003f7c: 0017879b 		addiw  a5,a5,1
  0x100003f80: 00251593 		slli  a1,a0,0x2
  0x100003f84: 00be0cb3 		add  s9,t3,a1
  0x100003f88: 000ca683 		lw  a3,0(s9)
  0x100003f8c: fcd796e3 		bne  a5,a3,100003f58 <_ZN5Dinic3DFSEii+0x138>

627 Basic Block: (0x100003f90, 0x100003fa0)
  0x100003f90: 008ba783 		lw  a5,8(s7)
  0x100003f94: 00cba803 		lw  a6,12(s7)
  0x100003f98: 4107883b 		subw  a6,a5,a6
  0x100003f9c: 00080793 		mv  a5,a6
  0x100003fa0: 01045463 		bge  s0,a6,100003fa8 <_ZN5Dinic3DFSEii+0x188>

628 Basic Block: (0x100003fa8, 0x100003fb0)
  0x100003fa8: 00078b1b 		sext.w  s6,a5
  0x100003fac: 00813783 		ld  a5,8(sp)
  0x100003fb0: 7aa78a63 		beq  a5,a0,100004764 <_ZN5Dinic3DFSEii+0x944>

629 Basic Block: (0x100003fb4, 0x100003fb4)
  0x100003fb4: fa0b02e3 		beqz  s6,100003f58 <_ZN5Dinic3DFSEii+0x138>

630 Basic Block: (0x1000046ac, 0x1000046cc)
  0x1000046ac: 03013b83 		ld  s7,48(sp)
  0x1000046b0: 03813d03 		ld  s10,56(sp)
  0x1000046b4: 04013d83 		ld  s11,64(sp)
  0x1000046b8: 04813483 		ld  s1,72(sp)
  0x1000046bc: 05013b03 		ld  s6,80(sp)
  0x1000046c0: 000f8e93 		mv  t4,t6
  0x1000046c4: 000e0893 		mv  a7,t3
  0x1000046c8: 00038413 		mv  s0,t2
  0x1000046cc: ff205063 		blez  s2,100003eac <_ZN5Dinic3DFSEii+0x8c>

631 Basic Block: (0x100003ee4, 0x100003ee4)
  0x100003ee4: fcf714e3 		bne  a4,a5,100003eac <_ZN5Dinic3DFSEii+0x8c>

632 Basic Block: (0x100001418, 0x100001418)
  0x100001418: 01c0006f 		j  100001434 <bench_dinic_run+0x430>

633 Basic Block: (0x100003ef8, 0x100003ef8)
  0x100003ef8: 00bb5463 		bge  s6,a1,100003f00 <_ZN5Dinic3DFSEii+0xe0>

634 Basic Block: (0x10000118c, 0x10000118c)
  0x10000118c: fa9792e3 		bne  a5,s1,100001130 <bench_dinic_run+0x12c>

635 Basic Block: (0x100003fa4, 0x100003fb0)
  0x100003fa4: 00040793 		mv  a5,s0
  0x100003fa8: 00078b1b 		sext.w  s6,a5
  0x100003fac: 00813783 		ld  a5,8(sp)
  0x100003fb0: 7aa78a63 		beq  a5,a0,100004764 <_ZN5Dinic3DFSEii+0x944>

636 Basic Block: (0x100003fb8, 0x100003fc8)
  0x100003fb8: 01813783 		ld  a5,24(sp)
  0x100003fbc: 00b785b3 		add  a1,a5,a1
  0x100003fc0: 0005ad03 		lw  s10,0(a1)
  0x100003fc4: fff00793 		li  a5,-1
  0x100003fc8: f8fd08e3 		beq  s10,a5,100003f58 <_ZN5Dinic3DFSEii+0x138>

637 Basic Block: (0x100003fcc, 0x100003ffc)
  0x100003fcc: 00000993 		li  s3,0
  0x100003fd0: 05b13c23 		sd  s11,88(sp)
  0x100003fd4: 00038313 		mv  t1,t2
  0x100003fd8: 00098d93 		mv  s11,s3
  0x100003fdc: fff00f13 		li  t5,-1
  0x100003fe0: 07713023 		sd  s7,96(sp)
  0x100003fe4: 07513423 		sd  s5,104(sp)
  0x100003fe8: 06813823 		sd  s0,112(sp)
  0x100003fec: 07213c23 		sd  s2,120(sp)
  0x100003ff0: 03613023 		sd  s6,32(sp)
  0x100003ff4: 000c8993 		mv  s3,s9
  0x100003ff8: 000f8393 		mv  t2,t6
  0x100003ffc: 01c0006f 		j  100004018 <_ZN5Dinic3DFSEii+0x1f8>

638 Basic Block: (0x100004018, 0x100004038)
  0x100004018: 004d1613 		slli  a2,s10,0x4
  0x10000401c: 00c387b3 		add  a5,t2,a2
  0x100004020: 0047ae83 		lw  t4,4(a5)
  0x100004024: 00f13823 		sd  a5,16(sp)
  0x100004028: 0016869b 		addiw  a3,a3,1
  0x10000402c: 002e9613 		slli  a2,t4,0x2
  0x100004030: 00ce0cb3 		add  s9,t3,a2
  0x100004034: 000ca503 		lw  a0,0(s9)
  0x100004038: fca694e3 		bne  a3,a0,100004000 <_ZN5Dinic3DFSEii+0x1e0>

639 Basic Block: (0x10000403c, 0x100004050)
  0x10000403c: 00c7a683 		lw  a3,12(a5)
  0x100004040: 0087af83 		lw  t6,8(a5)
  0x100004044: 02013783 		ld  a5,32(sp)
  0x100004048: 40df8fbb 		subw  t6,t6,a3
  0x10000404c: 000f8693 		mv  a3,t6
  0x100004050: 01f7d463 		bge  a5,t6,100004058 <_ZN5Dinic3DFSEii+0x238>

640 Basic Block: (0x100004054, 0x100004060)
  0x100004054: 00078693 		mv  a3,a5
  0x100004058: 00813783 		ld  a5,8(sp)
  0x10000405c: 0006849b 		sext.w  s1,a3
  0x100004060: 71d78663 		beq  a5,t4,10000476c <_ZN5Dinic3DFSEii+0x94c>

641 Basic Block: (0x10000476c, 0x100004770)
  0x10000476c: 00048b13 		mv  s6,s1
  0x100004770: ea9ff06f 		j  100004618 <_ZN5Dinic3DFSEii+0x7f8>

642 Basic Block: (0x100004618, 0x100004618)
  0x100004618: 9f6054e3 		blez  s6,100004000 <_ZN5Dinic3DFSEii+0x1e0>

643 Basic Block: (0x10000461c, 0x100004654)
  0x10000461c: 01013783 		ld  a5,16(sp)
  0x100004620: 001d4693 		xori  a3,s10,1
  0x100004624: 00469693 		slli  a3,a3,0x4
  0x100004628: 00c7a603 		lw  a2,12(a5)
  0x10000462c: 00d386b3 		add  a3,t2,a3
  0x100004630: 01bb0dbb 		addw  s11,s6,s11
  0x100004634: 0166063b 		addw  a2,a2,s6
  0x100004638: 00c7a623 		sw  a2,12(a5)
  0x10000463c: 00c6a603 		lw  a2,12(a3)
  0x100004640: 02013783 		ld  a5,32(sp)
  0x100004644: 4166063b 		subw  a2,a2,s6
  0x100004648: 416787bb 		subw  a5,a5,s6
  0x10000464c: 02f13023 		sd  a5,32(sp)
  0x100004650: 00c6a623 		sw  a2,12(a3)
  0x100004654: 9a0796e3 		bnez  a5,100004000 <_ZN5Dinic3DFSEii+0x1e0>

644 Basic Block: (0x100004658, 0x100004678)
  0x100004658: 000d8993 		mv  s3,s11
  0x10000465c: 06013b83 		ld  s7,96(sp)
  0x100004660: 06813a83 		ld  s5,104(sp)
  0x100004664: 07013403 		ld  s0,112(sp)
  0x100004668: 07813903 		ld  s2,120(sp)
  0x10000466c: 05813d83 		ld  s11,88(sp)
  0x100004670: 00038f93 		mv  t6,t2
  0x100004674: 00030393 		mv  t2,t1
  0x100004678: 8f3050e3 		blez  s3,100003f58 <_ZN5Dinic3DFSEii+0x138>

645 Basic Block: (0x10000467c, 0x1000046a8)
  0x10000467c: 00cba683 		lw  a3,12(s7)
  0x100004680: 001ac793 		xori  a5,s5,1
  0x100004684: 00479793 		slli  a5,a5,0x4
  0x100004688: 013686bb 		addw  a3,a3,s3
  0x10000468c: 00dba623 		sw  a3,12(s7)
  0x100004690: 00ff87b3 		add  a5,t6,a5
  0x100004694: 00c7a683 		lw  a3,12(a5)
  0x100004698: 4134043b 		subw  s0,s0,s3
  0x10000469c: 0129893b 		addw  s2,s3,s2
  0x1000046a0: 413686bb 		subw  a3,a3,s3
  0x1000046a4: 00d7a623 		sw  a3,12(a5)
  0x1000046a8: 8a0418e3 		bnez  s0,100003f58 <_ZN5Dinic3DFSEii+0x138>

646 Basic Block: (0x1000013b4, 0x1000013b4)
  0x1000013b4: fa9400e3 		beq  s0,s1,100001354 <bench_dinic_run+0x350>

647 Basic Block: (0x100004058, 0x100004060)
  0x100004058: 00813783 		ld  a5,8(sp)
  0x10000405c: 0006849b 		sext.w  s1,a3
  0x100004060: 71d78663 		beq  a5,t4,10000476c <_ZN5Dinic3DFSEii+0x94c>

648 Basic Block: (0x100004000, 0x100004010)
  0x100004000: 02033683 		ld  a3,32(t1)
  0x100004004: 002d1613 		slli  a2,s10,0x2
  0x100004008: 00c686b3 		add  a3,a3,a2
  0x10000400c: 0006ad03 		lw  s10,0(a3)
  0x100004010: 65ed0463 		beq  s10,t5,100004658 <_ZN5Dinic3DFSEii+0x838>

649 Basic Block: (0x100004014, 0x100004038)
  0x100004014: 0009a683 		lw  a3,0(s3)
  0x100004018: 004d1613 		slli  a2,s10,0x4
  0x10000401c: 00c387b3 		add  a5,t2,a2
  0x100004020: 0047ae83 		lw  t4,4(a5)
  0x100004024: 00f13823 		sd  a5,16(sp)
  0x100004028: 0016869b 		addiw  a3,a3,1
  0x10000402c: 002e9613 		slli  a2,t4,0x2
  0x100004030: 00ce0cb3 		add  s9,t3,a2
  0x100004034: 000ca503 		lw  a0,0(s9)
  0x100004038: fca694e3 		bne  a3,a0,100004000 <_ZN5Dinic3DFSEii+0x1e0>

650 Basic Block: (0x100004064, 0x100004064)
  0x100004064: f8048ee3 		beqz  s1,100004000 <_ZN5Dinic3DFSEii+0x1e0>

651 Basic Block: (0x100004068, 0x100004078)
  0x100004068: 01813783 		ld  a5,24(sp)
  0x10000406c: fff00693 		li  a3,-1
  0x100004070: 00c78633 		add  a2,a5,a2
  0x100004074: 00062a83 		lw  s5,0(a2) # ffffffff80000000 <_pmem_end+0xfffffffe40000000>
  0x100004078: f8da84e3 		beq  s5,a3,100004000 <_ZN5Dinic3DFSEii+0x1e0>

652 Basic Block: (0x10000407c, 0x1000040a8)
  0x10000407c: 00000b13 		li  s6,0
  0x100004080: 09a13423 		sd  s10,136(sp)
  0x100004084: 000d8793 		mv  a5,s11
  0x100004088: 00038813 		mv  a6,t2
  0x10000408c: fff00f93 		li  t6,-1
  0x100004090: 09313023 		sd  s3,128(sp)
  0x100004094: 000c8d93 		mv  s11,s9
  0x100004098: 000a8b93 		mv  s7,s5
  0x10000409c: 00048d13 		mv  s10,s1
  0x1000040a0: 03613423 		sd  s6,40(sp)
  0x1000040a4: 000e0393 		mv  t2,t3
  0x1000040a8: 01c0006f 		j  1000040c4 <_ZN5Dinic3DFSEii+0x2a4>

653 Basic Block: (0x1000040c4, 0x1000040e0)
  0x1000040c4: 004b9613 		slli  a2,s7,0x4
  0x1000040c8: 00c809b3 		add  s3,a6,a2
  0x1000040cc: 0049ae83 		lw  t4,4(s3)
  0x1000040d0: 0015051b 		addiw  a0,a0,1
  0x1000040d4: 002e9593 		slli  a1,t4,0x2
  0x1000040d8: 00b38cb3 		add  s9,t2,a1
  0x1000040dc: 000ca603 		lw  a2,0(s9)
  0x1000040e0: fcc516e3 		bne  a0,a2,1000040ac <_ZN5Dinic3DFSEii+0x28c>

654 Basic Block: (0x1000040ac, 0x1000040bc)
  0x1000040ac: 02033603 		ld  a2,32(t1)
  0x1000040b0: 002b9593 		slli  a1,s7,0x2
  0x1000040b4: 00b60633 		add  a2,a2,a1
  0x1000040b8: 00062b83 		lw  s7,0(a2)
  0x1000040bc: 55fb8263 		beq  s7,t6,100004600 <_ZN5Dinic3DFSEii+0x7e0>

655 Basic Block: (0x1000040c0, 0x1000040e0)
  0x1000040c0: 000da503 		lw  a0,0(s11)
  0x1000040c4: 004b9613 		slli  a2,s7,0x4
  0x1000040c8: 00c809b3 		add  s3,a6,a2
  0x1000040cc: 0049ae83 		lw  t4,4(s3)
  0x1000040d0: 0015051b 		addiw  a0,a0,1
  0x1000040d4: 002e9593 		slli  a1,t4,0x2
  0x1000040d8: 00b38cb3 		add  s9,t2,a1
  0x1000040dc: 000ca603 		lw  a2,0(s9)
  0x1000040e0: fcc516e3 		bne  a0,a2,1000040ac <_ZN5Dinic3DFSEii+0x28c>

656 Basic Block: (0x1000040e4, 0x1000040f4)
  0x1000040e4: 00c9a503 		lw  a0,12(s3)
  0x1000040e8: 0089a483 		lw  s1,8(s3)
  0x1000040ec: 40a484bb 		subw  s1,s1,a0
  0x1000040f0: 00048513 		mv  a0,s1
  0x1000040f4: 649d4c63 		blt  s10,s1,10000474c <_ZN5Dinic3DFSEii+0x92c>

657 Basic Block: (0x1000040f8, 0x100004100)
  0x1000040f8: 00813703 		ld  a4,8(sp)
  0x1000040fc: 0005049b 		sext.w  s1,a0
  0x100004100: 67d70a63 		beq  a4,t4,100004774 <_ZN5Dinic3DFSEii+0x954>

658 Basic Block: (0x100004104, 0x100004104)
  0x100004104: fa0484e3 		beqz  s1,1000040ac <_ZN5Dinic3DFSEii+0x28c>

659 Basic Block: (0x10000474c, 0x100004750)
  0x10000474c: 000d0513 		mv  a0,s10
  0x100004750: 9a9ff06f 		j  1000040f8 <_ZN5Dinic3DFSEii+0x2d8>

660 Basic Block: (0x100004108, 0x10000411c)
  0x100004108: 01813703 		ld  a4,24(sp)
  0x10000410c: 17813023 		sd  s8,352(sp)
  0x100004110: 00b705b3 		add  a1,a4,a1
  0x100004114: 0005ac03 		lw  s8,0(a1)
  0x100004118: fff00593 		li  a1,-1
  0x10000411c: 68bc0463 		beq  s8,a1,1000047a4 <_ZN5Dinic3DFSEii+0x984>

661 Basic Block: (0x100004120, 0x100004154)
  0x100004120: 00000b13 		li  s6,0
  0x100004124: 09313c23 		sd  s3,152(sp)
  0x100004128: 0ba13423 		sd  s10,168(sp)
  0x10000412c: 00048a93 		mv  s5,s1
  0x100004130: 19413023 		sd  s4,384(sp)
  0x100004134: fff00e93 		li  t4,-1
  0x100004138: 09b13823 		sd  s11,144(sp)
  0x10000413c: 0b713023 		sd  s7,160(sp)
  0x100004140: 000c8d13 		mv  s10,s9
  0x100004144: 000b0413 		mv  s0,s6
  0x100004148: 00080893 		mv  a7,a6
  0x10000414c: 00060493 		mv  s1,a2
  0x100004150: 00030993 		mv  s3,t1
  0x100004154: 01c0006f 		j  100004170 <_ZN5Dinic3DFSEii+0x350>

662 Basic Block: (0x100004170, 0x10000418c)
  0x100004170: 004c1513 		slli  a0,s8,0x4
  0x100004174: 00a88bb3 		add  s7,a7,a0
  0x100004178: 004bab03 		lw  s6,4(s7)
  0x10000417c: 0014849b 		addiw  s1,s1,1
  0x100004180: 002b1e13 		slli  t3,s6,0x2
  0x100004184: 01c38a33 		add  s4,t2,t3
  0x100004188: 000a2503 		lw  a0,0(s4)
  0x10000418c: fca496e3 		bne  s1,a0,100004158 <_ZN5Dinic3DFSEii+0x338>

663 Basic Block: (0x100004158, 0x100004168)
  0x100004158: 0209b503 		ld  a0,32(s3)
  0x10000415c: 002c1e13 		slli  t3,s8,0x2
  0x100004160: 01c50533 		add  a0,a0,t3
  0x100004164: 00052c03 		lw  s8,0(a0)
  0x100004168: 43dc0c63 		beq  s8,t4,1000045a0 <_ZN5Dinic3DFSEii+0x780>

664 Basic Block: (0x10000416c, 0x10000418c)
  0x10000416c: 000d2483 		lw  s1,0(s10)
  0x100004170: 004c1513 		slli  a0,s8,0x4
  0x100004174: 00a88bb3 		add  s7,a7,a0
  0x100004178: 004bab03 		lw  s6,4(s7)
  0x10000417c: 0014849b 		addiw  s1,s1,1
  0x100004180: 002b1e13 		slli  t3,s6,0x2
  0x100004184: 01c38a33 		add  s4,t2,t3
  0x100004188: 000a2503 		lw  a0,0(s4)
  0x10000418c: fca496e3 		bne  s1,a0,100004158 <_ZN5Dinic3DFSEii+0x338>

665 Basic Block: (0x100004190, 0x1000041a0)
  0x100004190: 00cba483 		lw  s1,12(s7)
  0x100004194: 008bac83 		lw  s9,8(s7)
  0x100004198: 409c8cbb 		subw  s9,s9,s1
  0x10000419c: 000c8493 		mv  s1,s9
  0x1000041a0: 019ad463 		bge  s5,s9,1000041a8 <_ZN5Dinic3DFSEii+0x388>

666 Basic Block: (0x1000041a8, 0x1000041ac)
  0x1000041a8: 00813703 		ld  a4,8(sp)
  0x1000041ac: 5d670863 		beq  a4,s6,10000477c <_ZN5Dinic3DFSEii+0x95c>

667 Basic Block: (0x1000041b0, 0x1000041b0)
  0x1000041b0: fa0484e3 		beqz  s1,100004158 <_ZN5Dinic3DFSEii+0x338>

668 Basic Block: (0x1000041a4, 0x1000041ac)
  0x1000041a4: 000a849b 		sext.w  s1,s5
  0x1000041a8: 00813703 		ld  a4,8(sp)
  0x1000041ac: 5d670863 		beq  a4,s6,10000477c <_ZN5Dinic3DFSEii+0x95c>

669 Basic Block: (0x1000041b4, 0x1000041c4)
  0x1000041b4: 01813703 		ld  a4,24(sp)
  0x1000041b8: 01c70e33 		add  t3,a4,t3
  0x1000041bc: 000e2c83 		lw  s9,0(t3)
  0x1000041c0: fff00e13 		li  t3,-1
  0x1000041c4: f9cc8ae3 		beq  s9,t3,100004158 <_ZN5Dinic3DFSEii+0x338>

670 Basic Block: (0x1000041c8, 0x1000041f0)
  0x1000041c8: 00000b13 		li  s6,0
  0x1000041cc: 0d513823 		sd  s5,208(sp)
  0x1000041d0: 000b0713 		mv  a4,s6
  0x1000041d4: 0af13823 		sd  a5,176(sp)
  0x1000041d8: 0ba13c23 		sd  s10,184(sp)
  0x1000041dc: 0d713023 		sd  s7,192(sp)
  0x1000041e0: 0d813423 		sd  s8,200(sp)
  0x1000041e4: 0c813c23 		sd  s0,216(sp)
  0x1000041e8: 00088a93 		mv  s5,a7
  0x1000041ec: 00038b13 		mv  s6,t2
  0x1000041f0: 01c0006f 		j  10000420c <_ZN5Dinic3DFSEii+0x3ec>

671 Basic Block: (0x10000420c, 0x100004228)
  0x10000420c: 004c9813 		slli  a6,s9,0x4
  0x100004210: 010a8db3 		add  s11,s5,a6
  0x100004214: 004da883 		lw  a7,4(s11)
  0x100004218: 0015041b 		addiw  s0,a0,1
  0x10000421c: 00289513 		slli  a0,a7,0x2
  0x100004220: 00ab0c33 		add  s8,s6,a0
  0x100004224: 000c2803 		lw  a6,0(s8)
  0x100004228: fd0416e3 		bne  s0,a6,1000041f4 <_ZN5Dinic3DFSEii+0x3d4>

672 Basic Block: (0x1000041f4, 0x100004204)
  0x1000041f4: 0209b503 		ld  a0,32(s3)
  0x1000041f8: 002c9c93 		slli  s9,s9,0x2
  0x1000041fc: 01950533 		add  a0,a0,s9
  0x100004200: 00052c83 		lw  s9,0(a0)
  0x100004204: 35cc8263 		beq  s9,t3,100004548 <_ZN5Dinic3DFSEii+0x728>

673 Basic Block: (0x100004208, 0x100004228)
  0x100004208: 000a2503 		lw  a0,0(s4)
  0x10000420c: 004c9813 		slli  a6,s9,0x4
  0x100004210: 010a8db3 		add  s11,s5,a6
  0x100004214: 004da883 		lw  a7,4(s11)
  0x100004218: 0015041b 		addiw  s0,a0,1
  0x10000421c: 00289513 		slli  a0,a7,0x2
  0x100004220: 00ab0c33 		add  s8,s6,a0
  0x100004224: 000c2803 		lw  a6,0(s8)
  0x100004228: fd0416e3 		bne  s0,a6,1000041f4 <_ZN5Dinic3DFSEii+0x3d4>

674 Basic Block: (0x100004548, 0x10000456c)
  0x100004548: 000a8893 		mv  a7,s5
  0x10000454c: 0b013783 		ld  a5,176(sp)
  0x100004550: 0b813d03 		ld  s10,184(sp)
  0x100004554: 0c013b83 		ld  s7,192(sp)
  0x100004558: 0c813c03 		ld  s8,200(sp)
  0x10000455c: 0d813403 		ld  s0,216(sp)
  0x100004560: 0d013a83 		ld  s5,208(sp)
  0x100004564: 000b0393 		mv  t2,s6
  0x100004568: 00070b13 		mv  s6,a4
  0x10000456c: bf6056e3 		blez  s6,100004158 <_ZN5Dinic3DFSEii+0x338>

675 Basic Block: (0x1000045a0, 0x1000045c4)
  0x1000045a0: 00098313 		mv  t1,s3
  0x1000045a4: 09013d83 		ld  s11,144(sp)
  0x1000045a8: 0a013b83 		ld  s7,160(sp)
  0x1000045ac: 0a813d03 		ld  s10,168(sp)
  0x1000045b0: 09813983 		ld  s3,152(sp)
  0x1000045b4: 18013a03 		ld  s4,384(sp)
  0x1000045b8: 16013c03 		ld  s8,352(sp)
  0x1000045bc: 00040b13 		mv  s6,s0
  0x1000045c0: 00088813 		mv  a6,a7
  0x1000045c4: af6054e3 		blez  s6,1000040ac <_ZN5Dinic3DFSEii+0x28c>

676 Basic Block: (0x100004204, 0x100004204)
  0x100004204: 35cc8263 		beq  s9,t3,100004548 <_ZN5Dinic3DFSEii+0x728>

677 Basic Block: (0x100004600, 0x100004618)
  0x100004600: 08013983 		ld  s3,128(sp)
  0x100004604: 08813d03 		ld  s10,136(sp)
  0x100004608: 02813b03 		ld  s6,40(sp)
  0x10000460c: 00038e13 		mv  t3,t2
  0x100004610: 00078d93 		mv  s11,a5
  0x100004614: 00080393 		mv  t2,a6
  0x100004618: 9f6054e3 		blez  s6,100004000 <_ZN5Dinic3DFSEii+0x1e0>

678 Basic Block: (0x10000418c, 0x10000418c)
  0x10000418c: fca496e3 		bne  s1,a0,100004158 <_ZN5Dinic3DFSEii+0x338>

679 Basic Block: (0x100004228, 0x100004228)
  0x100004228: fd0416e3 		bne  s0,a6,1000041f4 <_ZN5Dinic3DFSEii+0x3d4>

680 Basic Block: (0x100004168, 0x100004168)
  0x100004168: 43dc0c63 		beq  s8,t4,1000045a0 <_ZN5Dinic3DFSEii+0x780>

681 Basic Block: (0x1000040e0, 0x1000040e0)
  0x1000040e0: fcc516e3 		bne  a0,a2,1000040ac <_ZN5Dinic3DFSEii+0x28c>

682 Basic Block: (0x10000456c, 0x10000456c)
  0x10000456c: bf6056e3 		blez  s6,100004158 <_ZN5Dinic3DFSEii+0x338>

683 Basic Block: (0x1000041f0, 0x1000041f0)
  0x1000041f0: 01c0006f 		j  10000420c <_ZN5Dinic3DFSEii+0x3ec>

684 Basic Block: (0x10000477c, 0x100004780)
  0x10000477c: 00048b13 		mv  s6,s1
  0x100004780: dedff06f 		j  10000456c <_ZN5Dinic3DFSEii+0x74c>

685 Basic Block: (0x100004570, 0x10000459c)
  0x100004570: 00cbae03 		lw  t3,12(s7)
  0x100004574: 001c4513 		xori  a0,s8,1
  0x100004578: 00451513 		slli  a0,a0,0x4
  0x10000457c: 016e0e3b 		addw  t3,t3,s6
  0x100004580: 01cba623 		sw  t3,12(s7)
  0x100004584: 00a88533 		add  a0,a7,a0
  0x100004588: 00c52e03 		lw  t3,12(a0)
  0x10000458c: 416a8abb 		subw  s5,s5,s6
  0x100004590: 008b043b 		addw  s0,s6,s0
  0x100004594: 416e0e3b 		subw  t3,t3,s6
  0x100004598: 01c52623 		sw  t3,12(a0)
  0x10000459c: ba0a9ee3 		bnez  s5,100004158 <_ZN5Dinic3DFSEii+0x338>

686 Basic Block: (0x1000045c8, 0x1000045fc)
  0x1000045c8: 00c9a583 		lw  a1,12(s3)
  0x1000045cc: 001bc613 		xori  a2,s7,1
  0x1000045d0: 00461613 		slli  a2,a2,0x4
  0x1000045d4: 016585bb 		addw  a1,a1,s6
  0x1000045d8: 00b9a623 		sw  a1,12(s3)
  0x1000045dc: 00c80633 		add  a2,a6,a2
  0x1000045e0: 00c62583 		lw  a1,12(a2)
  0x1000045e4: 02813703 		ld  a4,40(sp)
  0x1000045e8: 416d0d3b 		subw  s10,s10,s6
  0x1000045ec: 416585bb 		subw  a1,a1,s6
  0x1000045f0: 00eb073b 		addw  a4,s6,a4
  0x1000045f4: 02e13423 		sd  a4,40(sp)
  0x1000045f8: 00b62623 		sw  a1,12(a2)
  0x1000045fc: aa0d18e3 		bnez  s10,1000040ac <_ZN5Dinic3DFSEii+0x28c>

687 Basic Block: (0x100001664, 0x1000016a4)
  0x100001664: 11813083 		ld  ra,280(sp)
  0x100001668: 11013403 		ld  s0,272(sp)
  0x10000166c: 000ff797 		auipc  a5,0xff
  0x100001670: 9d57aa23 		sw  s5,-1580(a5) # 100100040 <_ZL3ans>
  0x100001674: 10813483 		ld  s1,264(sp)
  0x100001678: 10013903 		ld  s2,256(sp)
  0x10000167c: 0f813983 		ld  s3,248(sp)
  0x100001680: 0f013a03 		ld  s4,240(sp)
  0x100001684: 0e813a83 		ld  s5,232(sp)
  0x100001688: 0e013b03 		ld  s6,224(sp)
  0x10000168c: 0d813b83 		ld  s7,216(sp)
  0x100001690: 0d013c03 		ld  s8,208(sp)
  0x100001694: 0c813c83 		ld  s9,200(sp)
  0x100001698: 0c013d03 		ld  s10,192(sp)
  0x10000169c: 0b813d83 		ld  s11,184(sp)
  0x1000016a0: 12010113 		addi  sp,sp,288
  0x1000016a4: 00008067 		ret

688 Basic Block: (0x1000016a8, 0x1000016c4)
  0x1000016a8: 000ff797 		auipc  a5,0xff
  0x1000016ac: a687b783 		ld  a5,-1432(a5) # 100100110 <setting>
  0x1000016b0: 0187a503 		lw  a0,24(a5)
  0x1000016b4: 000ff797 		auipc  a5,0xff
  0x1000016b8: 98c7a783 		lw  a5,-1652(a5) # 100100040 <_ZL3ans>
  0x1000016bc: 40f50533 		sub  a0,a0,a5
  0x1000016c0: 00153513 		seqz  a0,a0
  0x1000016c4: 00008067 		ret

689 Basic Block: (0x1000023a4, 0x1000023d0)
  0x1000023a4: 000fe797 		auipc  a5,0xfe
  0x1000023a8: d6c7b783 		ld  a5,-660(a5) # 100100110 <setting>
  0x1000023ac: 0007a783 		lw  a5,0(a5)
  0x1000023b0: fd010113 		addi  sp,sp,-48
  0x1000023b4: 02113423 		sd  ra,40(sp)
  0x1000023b8: 00913c23 		sd  s1,24(sp)
  0x1000023bc: 01213823 		sd  s2,16(sp)
  0x1000023c0: 000fe497 		auipc  s1,0xfe
  0x1000023c4: cc848493 		addi  s1,s1,-824 # 100100088 <SIZE>
  0x1000023c8: 00100513 		li  a0,1
  0x1000023cc: 00f4a023 		sw  a5,0(s1)
  0x1000023d0: 709000ef 		jal  1000032d8 <bench_srand>

690 Basic Block: (0x1000023d4, 0x1000023dc)
  0x1000023d4: 00011537 		lui  a0,0x11
  0x1000023d8: 80850513 		addi  a0,a0,-2040 # 10808 <i+0x107e8>
  0x1000023dc: 65d000ef 		jal  100003238 <bench_alloc>

691 Basic Block: (0x1000023e0, 0x1000023f8)
  0x1000023e0: 00050793 		mv  a5,a0
  0x1000023e4: 0004a503 		lw  a0,0(s1)
  0x1000023e8: 000fe717 		auipc  a4,0xfe
  0x1000023ec: c8f73c23 		sd  a5,-872(a4) # 100100080 <state>
  0x1000023f0: 000fe917 		auipc  s2,0xfe
  0x1000023f4: c8890913 		addi  s2,s2,-888 # 100100078 <blk>
  0x1000023f8: 641000ef 		jal  100003238 <bench_alloc>

692 Basic Block: (0x1000023fc, 0x100002408)
  0x1000023fc: 0004a783 		lw  a5,0(s1)
  0x100002400: 00a93023 		sd  a0,0(s2)
  0x100002404: 1907851b 		addiw  a0,a5,400
  0x100002408: 631000ef 		jal  100003238 <bench_alloc>

693 Basic Block: (0x10000240c, 0x100002418)
  0x10000240c: 0004a783 		lw  a5,0(s1)
  0x100002410: 000fe717 		auipc  a4,0xfe
  0x100002414: c6a73023 		sd  a0,-928(a4) # 100100070 <compress>
  0x100002418: 04f05263 		blez  a5,10000245c <bench_lzip_prepare+0xb8>

694 Basic Block: (0x10000241c, 0x10000242c)
  0x10000241c: 02813023 		sd  s0,32(sp)
  0x100002420: 01313423 		sd  s3,8(sp)
  0x100002424: 00000413 		li  s0,0
  0x100002428: 01a00993 		li  s3,26
  0x10000242c: 6c1000ef 		jal  1000032ec <bench_rand>

695 Basic Block: (0x100002430, 0x100002450)
  0x100002430: 0335753b 		remuw  a0,a0,s3
  0x100002434: 00093783 		ld  a5,0(s2)
  0x100002438: 0004a683 		lw  a3,0(s1)
  0x10000243c: 008787b3 		add  a5,a5,s0
  0x100002440: 00140413 		addi  s0,s0,1
  0x100002444: 0004071b 		sext.w  a4,s0
  0x100002448: 0615051b 		addiw  a0,a0,97
  0x10000244c: 00a78023 		sb  a0,0(a5)
  0x100002450: fcd74ee3 		blt  a4,a3,10000242c <bench_lzip_prepare+0x88>

696 Basic Block: (0x10000242c, 0x10000242c)
  0x10000242c: 6c1000ef 		jal  1000032ec <bench_rand>

697 Basic Block: (0x100002450, 0x100002450)
  0x100002450: fcd74ee3 		blt  a4,a3,10000242c <bench_lzip_prepare+0x88>

698 Basic Block: (0x100002454, 0x10000246c)
  0x100002454: 02013403 		ld  s0,32(sp)
  0x100002458: 00813983 		ld  s3,8(sp)
  0x10000245c: 02813083 		ld  ra,40(sp)
  0x100002460: 01813483 		ld  s1,24(sp)
  0x100002464: 01013903 		ld  s2,16(sp)
  0x100002468: 03010113 		addi  sp,sp,48
  0x10000246c: 00008067 		ret

699 Basic Block: (0x100002470, 0x100002498)
  0x100002470: ff010113 		addi  sp,sp,-16
  0x100002474: 000fe697 		auipc  a3,0xfe
  0x100002478: c0c6b683 		ld  a3,-1012(a3) # 100100080 <state>
  0x10000247c: 000fe617 		auipc  a2,0xfe
  0x100002480: c0c62603 		lw  a2,-1012(a2) # 100100088 <SIZE>
  0x100002484: 000fe597 		auipc  a1,0xfe
  0x100002488: bec5b583 		ld  a1,-1044(a1) # 100100070 <compress>
  0x10000248c: 000fe517 		auipc  a0,0xfe
  0x100002490: bec53503 		ld  a0,-1044(a0) # 100100078 <blk>
  0x100002494: 00113423 		sd  ra,8(sp)
  0x100002498: d50ff0ef 		jal  1000019e8 <qlz_compress>

700 Basic Block: (0x1000019e8, 0x1000019fc)
  0x1000019e8: 00100793 		li  a5,1
  0x1000019ec: 02079793 		slli  a5,a5,0x20
  0x1000019f0: 00060313 		mv  t1,a2
  0x1000019f4: e6e78793 		addi  a5,a5,-402
  0x1000019f8: fff60613 		addi  a2,a2,-1
  0x1000019fc: 5ac7ea63 		bltu  a5,a2,100001fb0 <qlz_compress+0x5c8>

701 Basic Block: (0x100001a00, 0x100001a34)
  0x100001a00: f4010113 		addi  sp,sp,-192
  0x100001a04: 0a913423 		sd  s1,168(sp)
  0x100001a08: 0a113c23 		sd  ra,184(sp)
  0x100001a0c: 0a813823 		sd  s0,176(sp)
  0x100001a10: 0b213023 		sd  s2,160(sp)
  0x100001a14: 09313c23 		sd  s3,152(sp)
  0x100001a18: 09413823 		sd  s4,144(sp)
  0x100001a1c: 07713c23 		sd  s7,120(sp)
  0x100001a20: 07a13023 		sd  s10,96(sp)
  0x100001a24: 0d700793 		li  a5,215
  0x100001a28: 00050493 		mv  s1,a0
  0x100001a2c: 00058293 		mv  t0,a1
  0x100001a30: 00900393 		li  t2,9
  0x100001a34: 5267fe63 		bgeu  a5,t1,100001f70 <qlz_compress+0x588>

702 Basic Block: (0x100001a38, 0x100001a58)
  0x100001a38: 000107b7 		lui  a5,0x10
  0x100001a3c: 00011737 		lui  a4,0x11
  0x100001a40: 00878793 		addi  a5,a5,8 # 10008 <i+0xffe8>
  0x100001a44: 80870713 		addi  a4,a4,-2040 # 10808 <i+0x107e8>
  0x100001a48: 00f687b3 		add  a5,a3,a5
  0x100001a4c: 00e68733 		add  a4,a3,a4
  0x100001a50: 0007b023 		sd  zero,0(a5)
  0x100001a54: 00878793 		addi  a5,a5,8
  0x100001a58: fef71ce3 		bne  a4,a5,100001a50 <qlz_compress+0x68>

703 Basic Block: (0x100001a50, 0x100001a58)
  0x100001a50: 0007b023 		sd  zero,0(a5)
  0x100001a54: 00878793 		addi  a5,a5,8
  0x100001a58: fef71ce3 		bne  a4,a5,100001a50 <qlz_compress+0x68>

704 Basic Block: (0x100001a5c, 0x100001a6c)
  0x100001a5c: 00c48433 		add  s0,s1,a2
  0x100001a60: 00728d33 		add  s10,t0,t2
  0x100001a64: ff640b93 		addi  s7,s0,-10
  0x100001a68: 004d0f13 		addi  t5,s10,4
  0x100001a6c: 669bea63 		bltu  s7,s1,1000020e0 <qlz_compress+0x6f8>

705 Basic Block: (0x100001a70, 0x100001ac4)
  0x100001a70: 00135793 		srli  a5,t1,0x1
  0x100001a74: 07913423 		sd  s9,104(sp)
  0x100001a78: 00f48cb3 		add  s9,s1,a5
  0x100001a7c: 09513423 		sd  s5,136(sp)
  0x100001a80: 07813823 		sd  s8,112(sp)
  0x100001a84: 02613823 		sd  t1,48(sp)
  0x100001a88: 09613023 		sd  s6,128(sp)
  0x100001a8c: 05b13c23 		sd  s11,88(sp)
  0x100001a90: 000d0793 		mv  a5,s10
  0x100001a94: 00048713 		mv  a4,s1
  0x100001a98: 80000837 		lui  a6,0x80000
  0x100001a9c: 05010513 		addi  a0,sp,80
  0x100001aa0: ffc40e13 		addi  t3,s0,-4
  0x100001aa4: 00010ab7 		lui  s5,0x10
  0x100001aa8: 00400913 		li  s2,4
  0x100001aac: 02713023 		sd  t2,32(sp)
  0x100001ab0: 02813c23 		sd  s0,56(sp)
  0x100001ab4: 00048c13 		mv  s8,s1
  0x100001ab8: 02513423 		sd  t0,40(sp)
  0x100001abc: 000c8313 		mv  t1,s9
  0x100001ac0: 00187613 		andi  a2,a6,1
  0x100001ac4: 3a061263 		bnez  a2,100001e68 <qlz_compress+0x480>

706 Basic Block: (0x100001ac8, 0x100001ad4)
  0x100001ac8: 0018581b 		srliw  a6,a6,0x1
  0x100001acc: 40ee03b3 		sub  t2,t3,a4
  0x100001ad0: 0fe00613 		li  a2,254
  0x100001ad4: 00765463 		bge  a2,t2,100001adc <qlz_compress+0xf4>

707 Basic Block: (0x100001ad8, 0x100001b40)
  0x100001ad8: 0fe00393 		li  t2,254
  0x100001adc: 00174583 		lbu  a1,1(a4)
  0x100001ae0: 00274603 		lbu  a2,2(a4)
  0x100001ae4: 00074883 		lbu  a7,0(a4)
  0x100001ae8: 0085959b 		slliw  a1,a1,0x8
  0x100001aec: 0106161b 		slliw  a2,a2,0x10
  0x100001af0: 00c5e5b3 		or  a1,a1,a2
  0x100001af4: 0115e5b3 		or  a1,a1,a7
  0x100001af8: 0005859b 		sext.w  a1,a1
  0x100001afc: 00d5d89b 		srliw  a7,a1,0xd
  0x100001b00: 0095d61b 		srliw  a2,a1,0x9
  0x100001b04: 01164633 		xor  a2,a2,a7
  0x100001b08: 00b64633 		xor  a2,a2,a1
  0x100001b0c: 7ff67e93 		andi  t4,a2,2047
  0x100001b10: 01d682b3 		add  t0,a3,t4
  0x100001b14: 005a82b3 		add  t0,s5,t0
  0x100001b18: 005e9413 		slli  s0,t4,0x5
  0x100001b1c: 0082c883 		lbu  a7,8(t0)
  0x100001b20: 00868433 		add  s0,a3,s0
  0x100001b24: 00843a03 		ld  s4,8(s0)
  0x100001b28: 0018849b 		addiw  s1,a7,1
  0x100001b2c: ffe70b13 		addi  s6,a4,-2
  0x100001b30: 00138393 		addi  t2,t2,1
  0x100001b34: 000e8613 		mv  a2,t4
  0x100001b38: 0038f993 		andi  s3,a7,3
  0x100001b3c: 0ff4f493 		zext.b  s1,s1
  0x100001b40: 376a6c63 		bltu  s4,s6,100001eb8 <qlz_compress+0x4d0>

708 Basic Block: (0x100001eb8, 0x100001eb8)
  0x100001eb8: 04088463 		beqz  a7,100001f00 <qlz_compress+0x518>

709 Basic Block: (0x100001f00, 0x100001f1c)
  0x100001f00: 00e43423 		sd  a4,8(s0) # ffffffff80000008 <_pmem_end+0xfffffffe40000008>
  0x100001f04: 00100613 		li  a2,1
  0x100001f08: 00c28423 		sb  a2,8(t0)
  0x100001f0c: 00074603 		lbu  a2,0(a4)
  0x100001f10: 00170713 		addi  a4,a4,1
  0x100001f14: 001f0f13 		addi  t5,t5,1
  0x100001f18: fecf0fa3 		sb  a2,-1(t5)
  0x100001f1c: baebf2e3 		bgeu  s7,a4,100001ac0 <qlz_compress+0xd8>

710 Basic Block: (0x100001ac0, 0x100001ac4)
  0x100001ac0: 00187613 		andi  a2,a6,1
  0x100001ac4: 3a061263 		bnez  a2,100001e68 <qlz_compress+0x480>

711 Basic Block: (0x100001e68, 0x100001e68)
  0x100001e68: 00e37c63 		bgeu  t1,a4,100001e80 <qlz_compress+0x498>

712 Basic Block: (0x100001e80, 0x100001ea4)
  0x100001e80: 80000637 		lui  a2,0x80000
  0x100001e84: 0018581b 		srliw  a6,a6,0x1
  0x100001e88: 00c86833 		or  a6,a6,a2
  0x100001e8c: 05012623 		sw  a6,76(sp)
  0x100001e90: 04c10613 		addi  a2,sp,76
  0x100001e94: 00064583 		lbu  a1,0(a2) # ffffffff80000000 <_pmem_end+0xfffffffe40000000>
  0x100001e98: 00160613 		addi  a2,a2,1
  0x100001e9c: 00178793 		addi  a5,a5,1
  0x100001ea0: feb78fa3 		sb  a1,-1(a5)
  0x100001ea4: fec518e3 		bne  a0,a2,100001e94 <qlz_compress+0x4ac>

713 Basic Block: (0x100001e94, 0x100001ea4)
  0x100001e94: 00064583 		lbu  a1,0(a2) # ffffffff80000000 <_pmem_end+0xfffffffe40000000>
  0x100001e98: 00160613 		addi  a2,a2,1
  0x100001e9c: 00178793 		addi  a5,a5,1
  0x100001ea0: feb78fa3 		sb  a1,-1(a5)
  0x100001ea4: fec518e3 		bne  a0,a2,100001e94 <qlz_compress+0x4ac>

714 Basic Block: (0x100001ea8, 0x100001eb4)
  0x100001ea8: 000f0793 		mv  a5,t5
  0x100001eac: 40000837 		lui  a6,0x40000
  0x100001eb0: 004f0f13 		addi  t5,t5,4
  0x100001eb4: c19ff06f 		j  100001acc <qlz_compress+0xe4>

715 Basic Block: (0x100001acc, 0x100001ad4)
  0x100001acc: 40ee03b3 		sub  t2,t3,a4
  0x100001ad0: 0fe00613 		li  a2,254
  0x100001ad4: 00765463 		bge  a2,t2,100001adc <qlz_compress+0xf4>

716 Basic Block: (0x100001ebc, 0x100001edc)
  0x100001ebc: 001a4f83 		lbu  t6,1(s4)
  0x100001ec0: 002a4c83 		lbu  s9,2(s4)
  0x100001ec4: 000a4d83 		lbu  s11,0(s4)
  0x100001ec8: 008f9f9b 		slliw  t6,t6,0x8
  0x100001ecc: 010c9c9b 		slliw  s9,s9,0x10
  0x100001ed0: 019fefb3 		or  t6,t6,s9
  0x100001ed4: 01bfefb3 		or  t6,t6,s11
  0x100001ed8: 000f8f9b 		sext.w  t6,t6
  0x100001edc: 06bf9a63 		bne  t6,a1,100001f50 <qlz_compress+0x568>

717 Basic Block: (0x100001f50, 0x100001f5c)
  0x100001f50: 00100c93 		li  s9,1
  0x100001f54: 00088a1b 		sext.w  s4,a7
  0x100001f58: 00000f93 		li  t6,0
  0x100001f5c: bf989ce3 		bne  a7,s9,100001b54 <qlz_compress+0x16c>

718 Basic Block: (0x100001f60, 0x100001f6c)
  0x100001f60: 00e43823 		sd  a4,16(s0)
  0x100001f64: 00200613 		li  a2,2
  0x100001f68: 00c28423 		sb  a2,8(t0)
  0x100001f6c: fa1ff06f 		j  100001f0c <qlz_compress+0x524>

719 Basic Block: (0x100001f0c, 0x100001f1c)
  0x100001f0c: 00074603 		lbu  a2,0(a4)
  0x100001f10: 00170713 		addi  a4,a4,1
  0x100001f14: 001f0f13 		addi  t5,t5,1
  0x100001f18: fecf0fa3 		sb  a2,-1(t5)
  0x100001f1c: baebf2e3 		bgeu  s7,a4,100001ac0 <qlz_compress+0xd8>

720 Basic Block: (0x100001b54, 0x100001b8c)
  0x100001b54: 005e9293 		slli  t0,t4,0x5
  0x100001b58: 005682b3 		add  t0,a3,t0
  0x100001b5c: 00000c93 		li  s9,0
  0x100001b60: 00100893 		li  a7,1
  0x100001b64: 00713423 		sd  t2,8(sp)
  0x100001b68: 01613023 		sd  s6,0(sp)
  0x100001b6c: 00058d93 		mv  s11,a1
  0x100001b70: 0102b583 		ld  a1,16(t0)
  0x100001b74: 020f9393 		slli  t2,t6,0x20
  0x100001b78: 0203d393 		srli  t2,t2,0x20
  0x100001b7c: 00770433 		add  s0,a4,t2
  0x100001b80: 007583b3 		add  t2,a1,t2
  0x100001b84: 00044403 		lbu  s0,0(s0)
  0x100001b88: 0003c383 		lbu  t2,0(t2)
  0x100001b8c: 24740663 		beq  s0,t2,100001dd8 <qlz_compress+0x3f0>

721 Basic Block: (0x100001b90, 0x100001b94)
  0x100001b90: 0018889b 		addiw  a7,a7,1
  0x100001b94: 01288663 		beq  a7,s2,100001ba0 <qlz_compress+0x1b8>

722 Basic Block: (0x100001b98, 0x100001b9c)
  0x100001b98: 00828293 		addi  t0,t0,8
  0x100001b9c: fd48eae3 		bltu  a7,s4,100001b70 <qlz_compress+0x188>

723 Basic Block: (0x100001ba0, 0x100001bc4)
  0x100001ba0: 002e9593 		slli  a1,t4,0x2
  0x100001ba4: 013585b3 		add  a1,a1,s3
  0x100001ba8: 00359593 		slli  a1,a1,0x3
  0x100001bac: 00b685b3 		add  a1,a3,a1
  0x100001bb0: 01d68eb3 		add  t4,a3,t4
  0x100001bb4: 00e5b423 		sd  a4,8(a1)
  0x100001bb8: 01da8eb3 		add  t4,s5,t4
  0x100001bbc: 009e8423 		sb  s1,8(t4)
  0x100001bc0: 00200593 		li  a1,2
  0x100001bc4: 35f5f463 		bgeu  a1,t6,100001f0c <qlz_compress+0x524>

724 Basic Block: (0x100001ee0, 0x100001ee8)
  0x100001ee0: 003a4283 		lbu  t0,3(s4)
  0x100001ee4: 00374f83 		lbu  t6,3(a4)
  0x100001ee8: 0df28e63 		beq  t0,t6,100001fc4 <qlz_compress+0x5dc>

725 Basic Block: (0x100001eec, 0x100001ef8)
  0x100001eec: 00100293 		li  t0,1
  0x100001ef0: 00088a1b 		sext.w  s4,a7
  0x100001ef4: 00300f93 		li  t6,3
  0x100001ef8: c4589ee3 		bne  a7,t0,100001b54 <qlz_compress+0x16c>

726 Basic Block: (0x100001efc, 0x100001efc)
  0x100001efc: 20c0006f 		j  100002108 <qlz_compress+0x720>

727 Basic Block: (0x100002108, 0x100002140)
  0x100002108: 005e9593 		slli  a1,t4,0x5
  0x10000210c: 00b685b3 		add  a1,a3,a1
  0x100002110: 01d68eb3 		add  t4,a3,t4
  0x100002114: 000108b7 		lui  a7,0x10
  0x100002118: 00e5b823 		sd  a4,16(a1)
  0x10000211c: 01d888b3 		add  a7,a7,t4
  0x100002120: 020f9593 		slli  a1,t6,0x20
  0x100002124: 00200e93 		li  t4,2
  0x100002128: 0205d593 		srli  a1,a1,0x20
  0x10000212c: 01d88423 		sb  t4,8(a7) # 10008 <i+0xffe8>
  0x100002130: 800008b7 		lui  a7,0x80000
  0x100002134: 01186833 		or  a6,a6,a7
  0x100002138: 00b70733 		add  a4,a4,a1
  0x10000213c: 00561613 		slli  a2,a2,0x5
  0x100002140: ab5ff06f 		j  100001bf4 <qlz_compress+0x20c>

728 Basic Block: (0x100001bf4, 0x100001c14)
  0x100001bf4: ffef8f9b 		addiw  t6,t6,-2
  0x100001bf8: 002f9f9b 		slliw  t6,t6,0x2
  0x100001bfc: 01f66633 		or  a2,a2,t6
  0x100001c00: 0006061b 		sext.w  a2,a2
  0x100001c04: 00865593 		srli  a1,a2,0x8
  0x100001c08: 00cf0023 		sb  a2,0(t5) # ffffffff80000000 <_pmem_end+0xfffffffe40000000>
  0x100001c0c: 00bf00a3 		sb  a1,1(t5)
  0x100001c10: 002f0f13 		addi  t5,t5,2
  0x100001c14: eaebf6e3 		bgeu  s7,a4,100001ac0 <qlz_compress+0xd8>

729 Basic Block: (0x100001dd8, 0x100001df8)
  0x100001dd8: 0015c383 		lbu  t2,1(a1)
  0x100001ddc: 0025c403 		lbu  s0,2(a1)
  0x100001de0: 0005cb03 		lbu  s6,0(a1)
  0x100001de4: 0083939b 		slliw  t2,t2,0x8
  0x100001de8: 0104141b 		slliw  s0,s0,0x10
  0x100001dec: 0083e3b3 		or  t2,t2,s0
  0x100001df0: 0163e3b3 		or  t2,t2,s6
  0x100001df4: 0003839b 		sext.w  t2,t2
  0x100001df8: d9b39ce3 		bne  t2,s11,100001b90 <qlz_compress+0x1a8>

730 Basic Block: (0x100001dfc, 0x100001e00)
  0x100001dfc: 00013383 		ld  t2,0(sp)
  0x100001e00: d875f8e3 		bgeu  a1,t2,100001b90 <qlz_compress+0x1a8>

731 Basic Block: (0x100001e04, 0x100001e0c)
  0x100001e04: 0035c403 		lbu  s0,3(a1)
  0x100001e08: 00374383 		lbu  t2,3(a4)
  0x100001e0c: 28741663 		bne  s0,t2,100002098 <qlz_compress+0x6b0>

732 Basic Block: (0x100002098, 0x10000209c)
  0x100002098: 00300393 		li  t2,3
  0x10000209c: dbdff06f 		j  100001e58 <qlz_compress+0x470>

733 Basic Block: (0x100001e58, 0x100001e58)
  0x100001e58: d27ffce3 		bgeu  t6,t2,100001b90 <qlz_compress+0x1a8>

734 Basic Block: (0x100001e5c, 0x100001e64)
  0x100001e5c: 00088c93 		mv  s9,a7
  0x100001e60: 00038f93 		mv  t6,t2
  0x100001e64: d2dff06f 		j  100001b90 <qlz_compress+0x1a8>

735 Basic Block: (0x100001bc8, 0x100001bf0)
  0x100001bc8: 800005b7 		lui  a1,0x80000
  0x100001bcc: 00b86833 		or  a6,a6,a1
  0x100001bd0: 020f9593 		slli  a1,t6,0x20
  0x100001bd4: 0205d593 		srli  a1,a1,0x20
  0x100001bd8: 0056161b 		slliw  a2,a2,0x5
  0x100001bdc: 00cce633 		or  a2,s9,a2
  0x100001be0: 00b70733 		add  a4,a4,a1
  0x100001be4: 00900593 		li  a1,9
  0x100001be8: 0008081b 		sext.w  a6,a6
  0x100001bec: 0006061b 		sext.w  a2,a2
  0x100001bf0: 33f5ea63 		bltu  a1,t6,100001f24 <qlz_compress+0x53c>

736 Basic Block: (0x100001b70, 0x100001b8c)
  0x100001b70: 0102b583 		ld  a1,16(t0)
  0x100001b74: 020f9393 		slli  t2,t6,0x20
  0x100001b78: 0203d393 		srli  t2,t2,0x20
  0x100001b7c: 00770433 		add  s0,a4,t2
  0x100001b80: 007583b3 		add  t2,a1,t2
  0x100001b84: 00044403 		lbu  s0,0(s0)
  0x100001b88: 0003c383 		lbu  t2,0(t2)
  0x100001b8c: 24740663 		beq  s0,t2,100001dd8 <qlz_compress+0x3f0>

737 Basic Block: (0x100001edc, 0x100001edc)
  0x100001edc: 06bf9a63 		bne  t6,a1,100001f50 <qlz_compress+0x568>

738 Basic Block: (0x100001e10, 0x100001e18)
  0x100001e10: 00813403 		ld  s0,8(sp)
  0x100001e14: 00300393 		li  t2,3
  0x100001e18: 2883f063 		bgeu  t2,s0,100002098 <qlz_compress+0x6b0>

739 Basic Block: (0x100001e1c, 0x100001e28)
  0x100001e1c: 01a13823 		sd  s10,16(sp)
  0x100001e20: 01413c23 		sd  s4,24(sp)
  0x100001e24: 00040d13 		mv  s10,s0
  0x100001e28: 0080006f 		j  100001e30 <qlz_compress+0x448>

740 Basic Block: (0x100001e30, 0x100001e4c)
  0x100001e30: 0013839b 		addiw  t2,t2,1
  0x100001e34: 02039413 		slli  s0,t2,0x20
  0x100001e38: 02045413 		srli  s0,s0,0x20
  0x100001e3c: 00858b33 		add  s6,a1,s0
  0x100001e40: 00870a33 		add  s4,a4,s0
  0x100001e44: 000b4b03 		lbu  s6,0(s6)
  0x100001e48: 000a4a03 		lbu  s4,0(s4)
  0x100001e4c: ff4b00e3 		beq  s6,s4,100001e2c <qlz_compress+0x444>

741 Basic Block: (0x100001e50, 0x100001e58)
  0x100001e50: 01013d03 		ld  s10,16(sp)
  0x100001e54: 01813a03 		ld  s4,24(sp)
  0x100001e58: d27ffce3 		bgeu  t6,t2,100001b90 <qlz_compress+0x1a8>

742 Basic Block: (0x100001b44, 0x100001b50)
  0x100001b44: 00100413 		li  s0,1
  0x100001b48: 00088a1b 		sext.w  s4,a7
  0x100001b4c: 00000f93 		li  t6,0
  0x100001b50: 55147863 		bgeu  s0,a7,1000020a0 <qlz_compress+0x6b8>

743 Basic Block: (0x1000020a0, 0x1000020b8)
  0x1000020a0: 002e9613 		slli  a2,t4,0x2
  0x1000020a4: 01360633 		add  a2,a2,s3
  0x1000020a8: 00361613 		slli  a2,a2,0x3
  0x1000020ac: 00c68633 		add  a2,a3,a2
  0x1000020b0: 00e63423 		sd  a4,8(a2)
  0x1000020b4: 00928423 		sb  s1,8(t0)
  0x1000020b8: e55ff06f 		j  100001f0c <qlz_compress+0x524>

744 Basic Block: (0x100001fc4, 0x100001fcc)
  0x100001fc4: 004a4283 		lbu  t0,4(s4)
  0x100001fc8: 00474f83 		lbu  t6,4(a4)
  0x100001fcc: 13f29663 		bne  t0,t6,1000020f8 <qlz_compress+0x710>

745 Basic Block: (0x1000020f8, 0x100002104)
  0x1000020f8: 00100293 		li  t0,1
  0x1000020fc: 00088a1b 		sext.w  s4,a7
  0x100002100: 00400f93 		li  t6,4
  0x100002104: a45898e3 		bne  a7,t0,100001b54 <qlz_compress+0x16c>

746 Basic Block: (0x100001b40, 0x100001b40)
  0x100001b40: 376a6c63 		bltu  s4,s6,100001eb8 <qlz_compress+0x4d0>

747 Basic Block: (0x100001b8c, 0x100001b8c)
  0x100001b8c: 24740663 		beq  s0,t2,100001dd8 <qlz_compress+0x3f0>

748 Basic Block: (0x100001ac4, 0x100001ac4)
  0x100001ac4: 3a061263 		bnez  a2,100001e68 <qlz_compress+0x480>

749 Basic Block: (0x100001fd0, 0x100001fd4)
  0x100001fd0: 00400f93 		li  t6,4
  0x100001fd4: 007fe663 		bltu  t6,t2,100001fe0 <qlz_compress+0x5f8>

750 Basic Block: (0x100001fe0, 0x100001ffc)
  0x100001fe0: 001f8f9b 		addiw  t6,t6,1 # 10001 <i+0xffe1>
  0x100001fe4: 020f9293 		slli  t0,t6,0x20
  0x100001fe8: 0202d293 		srli  t0,t0,0x20
  0x100001fec: 005a0cb3 		add  s9,s4,t0
  0x100001ff0: 00570433 		add  s0,a4,t0
  0x100001ff4: 000ccc83 		lbu  s9,0(s9)
  0x100001ff8: 00044403 		lbu  s0,0(s0)
  0x100001ffc: fe8c80e3 		beq  s9,s0,100001fdc <qlz_compress+0x5f4>

751 Basic Block: (0x100002000, 0x10000200c)
  0x100002000: 00100293 		li  t0,1
  0x100002004: 00088a1b 		sext.w  s4,a7
  0x100002008: 00000c93 		li  s9,0
  0x10000200c: b45894e3 		bne  a7,t0,100001b54 <qlz_compress+0x16c>

752 Basic Block: (0x100001b94, 0x100001b94)
  0x100001b94: 01288663 		beq  a7,s2,100001ba0 <qlz_compress+0x1b8>

753 Basic Block: (0x100001bc4, 0x100001bc4)
  0x100001bc4: 35f5f463 		bgeu  a1,t6,100001f0c <qlz_compress+0x524>

754 Basic Block: (0x100001b9c, 0x100001b9c)
  0x100001b9c: fd48eae3 		bltu  a7,s4,100001b70 <qlz_compress+0x188>

755 Basic Block: (0x100001e2c, 0x100001e2c)
  0x100001e2c: 03a47263 		bgeu  s0,s10,100001e50 <qlz_compress+0x468>

756 Basic Block: (0x100001ad4, 0x100001ad4)
  0x100001ad4: 00765463 		bge  a2,t2,100001adc <qlz_compress+0xf4>

757 Basic Block: (0x100001bf0, 0x100001bf0)
  0x100001bf0: 33f5ea63 		bltu  a1,t6,100001f24 <qlz_compress+0x53c>

758 Basic Block: (0x100001f5c, 0x100001f5c)
  0x100001f5c: bf989ce3 		bne  a7,s9,100001b54 <qlz_compress+0x16c>

759 Basic Block: (0x100001c14, 0x100001c14)
  0x100001c14: eaebf6e3 		bgeu  s7,a4,100001ac0 <qlz_compress+0xd8>

760 Basic Block: (0x100001e00, 0x100001e00)
  0x100001e00: d875f8e3 		bgeu  a1,t2,100001b90 <qlz_compress+0x1a8>

761 Basic Block: (0x100001df8, 0x100001df8)
  0x100001df8: d9b39ce3 		bne  t2,s11,100001b90 <qlz_compress+0x1a8>

762 Basic Block: (0x100001f1c, 0x100001f1c)
  0x100001f1c: baebf2e3 		bgeu  s7,a4,100001ac0 <qlz_compress+0xd8>

763 Basic Block: (0x100001ea4, 0x100001ea4)
  0x100001ea4: fec518e3 		bne  a0,a2,100001e94 <qlz_compress+0x4ac>

764 Basic Block: (0x100001e64, 0x100001e64)
  0x100001e64: d2dff06f 		j  100001b90 <qlz_compress+0x1a8>

765 Basic Block: (0x100001ee8, 0x100001ee8)
  0x100001ee8: 0df28e63 		beq  t0,t6,100001fc4 <qlz_compress+0x5dc>

766 Basic Block: (0x100001e4c, 0x100001e4c)
  0x100001e4c: ff4b00e3 		beq  s6,s4,100001e2c <qlz_compress+0x444>

767 Basic Block: (0x100001e28, 0x100001e28)
  0x100001e28: 0080006f 		j  100001e30 <qlz_compress+0x448>

768 Basic Block: (0x100001ef8, 0x100001ef8)
  0x100001ef8: c4589ee3 		bne  a7,t0,100001b54 <qlz_compress+0x16c>

769 Basic Block: (0x10000209c, 0x10000209c)
  0x10000209c: dbdff06f 		j  100001e58 <qlz_compress+0x470>

770 Basic Block: (0x100001e0c, 0x100001e0c)
  0x100001e0c: 28741663 		bne  s0,t2,100002098 <qlz_compress+0x6b0>

771 Basic Block: (0x100001fdc, 0x100001fdc)
  0x100001fdc: 1672f663 		bgeu  t0,t2,100002148 <qlz_compress+0x760>

772 Basic Block: (0x100001eb4, 0x100001eb4)
  0x100001eb4: c19ff06f 		j  100001acc <qlz_compress+0xe4>

773 Basic Block: (0x100001e6c, 0x100001e7c)
  0x100001e6c: 41870633 		sub  a2,a4,s8
  0x100001e70: 40565893 		srai  a7,a2,0x5
  0x100001e74: 41af05b3 		sub  a1,t5,s10
  0x100001e78: 41160633 		sub  a2,a2,a7
  0x100001e7c: 18b64c63 		blt  a2,a1,100002014 <qlz_compress+0x62c>

774 Basic Block: (0x100001e18, 0x100001e18)
  0x100001e18: 2883f063 		bgeu  t2,s0,100002098 <qlz_compress+0x6b0>

775 Basic Block: (0x100001e7c, 0x100001e7c)
  0x100001e7c: 18b64c63 		blt  a2,a1,100002014 <qlz_compress+0x62c>

776 Basic Block: (0x100001adc, 0x100001b40)
  0x100001adc: 00174583 		lbu  a1,1(a4)
  0x100001ae0: 00274603 		lbu  a2,2(a4)
  0x100001ae4: 00074883 		lbu  a7,0(a4)
  0x100001ae8: 0085959b 		slliw  a1,a1,0x8
  0x100001aec: 0106161b 		slliw  a2,a2,0x10
  0x100001af0: 00c5e5b3 		or  a1,a1,a2
  0x100001af4: 0115e5b3 		or  a1,a1,a7
  0x100001af8: 0005859b 		sext.w  a1,a1
  0x100001afc: 00d5d89b 		srliw  a7,a1,0xd
  0x100001b00: 0095d61b 		srliw  a2,a1,0x9
  0x100001b04: 01164633 		xor  a2,a2,a7
  0x100001b08: 00b64633 		xor  a2,a2,a1
  0x100001b0c: 7ff67e93 		andi  t4,a2,2047
  0x100001b10: 01d682b3 		add  t0,a3,t4
  0x100001b14: 005a82b3 		add  t0,s5,t0
  0x100001b18: 005e9413 		slli  s0,t4,0x5
  0x100001b1c: 0082c883 		lbu  a7,8(t0)
  0x100001b20: 00868433 		add  s0,a3,s0
  0x100001b24: 00843a03 		ld  s4,8(s0)
  0x100001b28: 0018849b 		addiw  s1,a7,1
  0x100001b2c: ffe70b13 		addi  s6,a4,-2
  0x100001b30: 00138393 		addi  t2,t2,1
  0x100001b34: 000e8613 		mv  a2,t4
  0x100001b38: 0038f993 		andi  s3,a7,3
  0x100001b3c: 0ff4f493 		zext.b  s1,s1
  0x100001b40: 376a6c63 		bltu  s4,s6,100001eb8 <qlz_compress+0x4d0>

777 Basic Block: (0x100001c18, 0x100001c2c)
  0x100001c18: 03813403 		ld  s0,56(sp)
  0x100001c1c: 02013383 		ld  t2,32(sp)
  0x100001c20: 02813283 		ld  t0,40(sp)
  0x100001c24: 03013303 		ld  t1,48(sp)
  0x100001c28: 000c0493 		mv  s1,s8
  0x100001c2c: 48e46863 		bltu  s0,a4,1000020bc <qlz_compress+0x6d4>

778 Basic Block: (0x100001c30, 0x100001c68)
  0x100001c30: 08813a83 		ld  s5,136(sp)
  0x100001c34: 08013b03 		ld  s6,128(sp)
  0x100001c38: 07013c03 		ld  s8,112(sp)
  0x100001c3c: 06813c83 		ld  s9,104(sp)
  0x100001c40: 05813d83 		ld  s11,88(sp)
  0x100001c44: ffd40e93 		addi  t4,s0,-3
  0x100001c48: 006484b3 		add  s1,s1,t1
  0x100001c4c: 04c10593 		addi  a1,sp,76
  0x100001c50: 80000437 		lui  s0,0x80000
  0x100001c54: 05010e13 		addi  t3,sp,80
  0x100001c58: 00010fb7 		lui  t6,0x10
  0x100001c5c: 00187613 		andi  a2,a6,1
  0x100001c60: 0018589b 		srliw  a7,a6,0x1
  0x100001c64: 0018551b 		srliw  a0,a6,0x1
  0x100001c68: 30061863 		bnez  a2,100001f78 <qlz_compress+0x590>

779 Basic Block: (0x100001c6c, 0x100001c78)
  0x100001c6c: 0028591b 		srliw  s2,a6,0x2
  0x100001c70: 0018f893 		andi  a7,a7,1
  0x100001c74: 00050813 		mv  a6,a0
  0x100001c78: 06eee263 		bltu  t4,a4,100001cdc <qlz_compress+0x2f4>

780 Basic Block: (0x100001c7c, 0x100001cec)
  0x100001c7c: 00174503 		lbu  a0,1(a4)
  0x100001c80: 00274603 		lbu  a2,2(a4)
  0x100001c84: 00074983 		lbu  s3,0(a4)
  0x100001c88: 0085151b 		slliw  a0,a0,0x8
  0x100001c8c: 0106161b 		slliw  a2,a2,0x10
  0x100001c90: 00c56533 		or  a0,a0,a2
  0x100001c94: 01356533 		or  a0,a0,s3
  0x100001c98: 0005051b 		sext.w  a0,a0
  0x100001c9c: 00d5599b 		srliw  s3,a0,0xd
  0x100001ca0: 0095561b 		srliw  a2,a0,0x9
  0x100001ca4: 01364633 		xor  a2,a2,s3
  0x100001ca8: 00a64633 		xor  a2,a2,a0
  0x100001cac: 7ff67613 		andi  a2,a2,2047
  0x100001cb0: 00c68533 		add  a0,a3,a2
  0x100001cb4: 00af8533 		add  a0,t6,a0
  0x100001cb8: 00854983 		lbu  s3,8(a0)
  0x100001cbc: 00261613 		slli  a2,a2,0x2
  0x100001cc0: 0039fa13 		andi  s4,s3,3
  0x100001cc4: 01460633 		add  a2,a2,s4
  0x100001cc8: 00361613 		slli  a2,a2,0x3
  0x100001ccc: 00c68633 		add  a2,a3,a2
  0x100001cd0: 00e63423 		sd  a4,8(a2)
  0x100001cd4: 0019899b 		addiw  s3,s3,1
  0x100001cd8: 01350423 		sb  s3,8(a0)
  0x100001cdc: 00074603 		lbu  a2,0(a4)
  0x100001ce0: 00170713 		addi  a4,a4,1
  0x100001ce4: 001f0f13 		addi  t5,t5,1
  0x100001ce8: fecf0fa3 		sb  a2,-1(t5)
  0x100001cec: f69718e3 		bne  a4,s1,100001c5c <qlz_compress+0x274>

781 Basic Block: (0x100001c5c, 0x100001c68)
  0x100001c5c: 00187613 		andi  a2,a6,1
  0x100001c60: 0018589b 		srliw  a7,a6,0x1
  0x100001c64: 0018551b 		srliw  a0,a6,0x1
  0x100001c68: 30061863 		bnez  a2,100001f78 <qlz_compress+0x590>

782 Basic Block: (0x100001f78, 0x100001f94)
  0x100001f78: 0088e8b3 		or  a7,a7,s0
  0x100001f7c: 05112623 		sw  a7,76(sp)
  0x100001f80: 00058613 		mv  a2,a1
  0x100001f84: 00064503 		lbu  a0,0(a2)
  0x100001f88: 00160613 		addi  a2,a2,1
  0x100001f8c: 00178793 		addi  a5,a5,1
  0x100001f90: fea78fa3 		sb  a0,-1(a5)
  0x100001f94: fece18e3 		bne  t3,a2,100001f84 <qlz_compress+0x59c>

783 Basic Block: (0x100001f84, 0x100001f94)
  0x100001f84: 00064503 		lbu  a0,0(a2)
  0x100001f88: 00160613 		addi  a2,a2,1
  0x100001f8c: 00178793 		addi  a5,a5,1
  0x100001f90: fea78fa3 		sb  a0,-1(a5)
  0x100001f94: fece18e3 		bne  t3,a2,100001f84 <qlz_compress+0x59c>

784 Basic Block: (0x100001f98, 0x100001fac)
  0x100001f98: 000f0793 		mv  a5,t5
  0x100001f9c: 20000937 		lui  s2,0x20000
  0x100001fa0: 004f0f13 		addi  t5,t5,4
  0x100001fa4: 00000893 		li  a7,0
  0x100001fa8: 40000837 		lui  a6,0x40000
  0x100001fac: ccdff06f 		j  100001c78 <qlz_compress+0x290>

785 Basic Block: (0x100001c78, 0x100001c78)
  0x100001c78: 06eee263 		bltu  t4,a4,100001cdc <qlz_compress+0x2f4>

786 Basic Block: (0x100001cdc, 0x100001cec)
  0x100001cdc: 00074603 		lbu  a2,0(a4)
  0x100001ce0: 00170713 		addi  a4,a4,1
  0x100001ce4: 001f0f13 		addi  t5,t5,1
  0x100001ce8: fecf0fa3 		sb  a2,-1(t5)
  0x100001cec: f69718e3 		bne  a4,s1,100001c5c <qlz_compress+0x274>

787 Basic Block: (0x100001cf0, 0x100001cf0)
  0x100001cf0: 00089e63 		bnez  a7,100001d0c <qlz_compress+0x324>

788 Basic Block: (0x100001cf4, 0x100001d04)
  0x100001cf4: 0018571b 		srliw  a4,a6,0x1
  0x100001cf8: 00177613 		andi  a2,a4,1
  0x100001cfc: 0008091b 		sext.w  s2,a6
  0x100001d00: 0007081b 		sext.w  a6,a4
  0x100001d04: fe0608e3 		beqz  a2,100001cf4 <qlz_compress+0x30c>

789 Basic Block: (0x100001d08, 0x100001d2c)
  0x100001d08: 0029591b 		srliw  s2,s2,0x2
  0x100001d0c: 80000737 		lui  a4,0x80000
  0x100001d10: 00e96933 		or  s2,s2,a4
  0x100001d14: 05212623 		sw  s2,76(sp)
  0x100001d18: 05010613 		addi  a2,sp,80
  0x100001d1c: 0005c703 		lbu  a4,0(a1) # ffffffff80000000 <_pmem_end+0xfffffffe40000000>
  0x100001d20: 00158593 		addi  a1,a1,1
  0x100001d24: 00178793 		addi  a5,a5,1
  0x100001d28: fee78fa3 		sb  a4,-1(a5)
  0x100001d2c: fec598e3 		bne  a1,a2,100001d1c <qlz_compress+0x334>

790 Basic Block: (0x100001d1c, 0x100001d2c)
  0x100001d1c: 0005c703 		lbu  a4,0(a1) # ffffffff80000000 <_pmem_end+0xfffffffe40000000>
  0x100001d20: 00158593 		addi  a1,a1,1
  0x100001d24: 00178793 		addi  a5,a5,1
  0x100001d28: fee78fa3 		sb  a4,-1(a5)
  0x100001d2c: fec598e3 		bne  a1,a2,100001d1c <qlz_compress+0x334>

791 Basic Block: (0x100001d30, 0x100001d38)
  0x100001d30: 41af0533 		sub  a0,t5,s10
  0x100001d34: 00900793 		li  a5,9
  0x100001d38: 00f55463 		bge  a0,a5,100001d40 <qlz_compress+0x358>

792 Basic Block: (0x100001d40, 0x100001d50)
  0x100001d40: 00750533 		add  a0,a0,t2
  0x100001d44: 00100793 		li  a5,1
  0x100001d48: 0006b023 		sd  zero,0(a3)
  0x100001d4c: 00300713 		li  a4,3
  0x100001d50: 26e38463 		beq  t2,a4,100001fb8 <qlz_compress+0x5d0>

793 Basic Block: (0x100001d54, 0x100001d80)
  0x100001d54: 0027e793 		ori  a5,a5,2
  0x100001d58: 04c10593 		addi  a1,sp,76
  0x100001d5c: 00f28023 		sb  a5,0(t0)
  0x100001d60: 04a12623 		sw  a0,76(sp)
  0x100001d64: 00058793 		mv  a5,a1
  0x100001d68: 00128713 		addi  a4,t0,1
  0x100001d6c: 05010613 		addi  a2,sp,80
  0x100001d70: 0007c683 		lbu  a3,0(a5)
  0x100001d74: 00178793 		addi  a5,a5,1
  0x100001d78: 00170713 		addi  a4,a4,1 # ffffffff80000001 <_pmem_end+0xfffffffe40000001>
  0x100001d7c: fed70fa3 		sb  a3,-1(a4)
  0x100001d80: fec798e3 		bne  a5,a2,100001d70 <qlz_compress+0x388>

794 Basic Block: (0x100001d70, 0x100001d80)
  0x100001d70: 0007c683 		lbu  a3,0(a5)
  0x100001d74: 00178793 		addi  a5,a5,1
  0x100001d78: 00170713 		addi  a4,a4,1 # ffffffff80000001 <_pmem_end+0xfffffffe40000001>
  0x100001d7c: fed70fa3 		sb  a3,-1(a4)
  0x100001d80: fec798e3 		bne  a5,a2,100001d70 <qlz_compress+0x388>

795 Basic Block: (0x100001d84, 0x100001da0)
  0x100001d84: 04612623 		sw  t1,76(sp)
  0x100001d88: 00528793 		addi  a5,t0,5
  0x100001d8c: 05010693 		addi  a3,sp,80
  0x100001d90: 0005c703 		lbu  a4,0(a1)
  0x100001d94: 00158593 		addi  a1,a1,1
  0x100001d98: 00178793 		addi  a5,a5,1
  0x100001d9c: fee78fa3 		sb  a4,-1(a5)
  0x100001da0: fed598e3 		bne  a1,a3,100001d90 <qlz_compress+0x3a8>

796 Basic Block: (0x100001d90, 0x100001da0)
  0x100001d90: 0005c703 		lbu  a4,0(a1)
  0x100001d94: 00158593 		addi  a1,a1,1
  0x100001d98: 00178793 		addi  a5,a5,1
  0x100001d9c: fee78fa3 		sb  a4,-1(a5)
  0x100001da0: fed598e3 		bne  a1,a3,100001d90 <qlz_compress+0x3a8>

797 Basic Block: (0x100001da4, 0x100001dd4)
  0x100001da4: 0002c783 		lbu  a5,0(t0)
  0x100001da8: 0487e793 		ori  a5,a5,72
  0x100001dac: 00f28023 		sb  a5,0(t0)
  0x100001db0: 0b813083 		ld  ra,184(sp)
  0x100001db4: 0b013403 		ld  s0,176(sp)
  0x100001db8: 0a813483 		ld  s1,168(sp)
  0x100001dbc: 0a013903 		ld  s2,160(sp)
  0x100001dc0: 09813983 		ld  s3,152(sp)
  0x100001dc4: 09013a03 		ld  s4,144(sp)
  0x100001dc8: 07813b83 		ld  s7,120(sp)
  0x100001dcc: 06013d03 		ld  s10,96(sp)
  0x100001dd0: 0c010113 		addi  sp,sp,192
  0x100001dd4: 00008067 		ret

798 Basic Block: (0x10000249c, 0x1000024ac)
  0x10000249c: 00813083 		ld  ra,8(sp)
  0x1000024a0: 000fe797 		auipc  a5,0xfe
  0x1000024a4: bca7a423 		sw  a0,-1080(a5) # 100100068 <len>
  0x1000024a8: 01010113 		addi  sp,sp,16
  0x1000024ac: 00008067 		ret

799 Basic Block: (0x1000024b0, 0x1000024cc)
  0x1000024b0: 000fe517 		auipc  a0,0xfe
  0x1000024b4: bc053503 		ld  a0,-1088(a0) # 100100070 <compress>
  0x1000024b8: 000fe597 		auipc  a1,0xfe
  0x1000024bc: bb05a583 		lw  a1,-1104(a1) # 100100068 <len>
  0x1000024c0: ff010113 		addi  sp,sp,-16
  0x1000024c4: 00b505b3 		add  a1,a0,a1
  0x1000024c8: 00113423 		sd  ra,8(sp)
  0x1000024cc: 655000ef 		jal  100003320 <checksum>

800 Basic Block: (0x1000024d0, 0x1000024f0)
  0x1000024d0: 000fe797 		auipc  a5,0xfe
  0x1000024d4: c407b783 		ld  a5,-960(a5) # 100100110 <setting>
  0x1000024d8: 0187a783 		lw  a5,24(a5)
  0x1000024dc: 00813083 		ld  ra,8(sp)
  0x1000024e0: 0005051b 		sext.w  a0,a0
  0x1000024e4: 40a78533 		sub  a0,a5,a0
  0x1000024e8: 00153513 		seqz  a0,a0
  0x1000024ec: 01010113 		addi  sp,sp,16
  0x1000024f0: 00008067 		ret

801 Basic Block: (0x1000007e4, 0x100000810)
  0x1000007e4: 00100797 		auipc  a5,0x100
  0x1000007e8: 92c7b783 		ld  a5,-1748(a5) # 100100110 <setting>
  0x1000007ec: 0007a783 		lw  a5,0(a5)
  0x1000007f0: fd010113 		addi  sp,sp,-48
  0x1000007f4: 02113423 		sd  ra,40(sp)
  0x1000007f8: 00913c23 		sd  s1,24(sp)
  0x1000007fc: 01213823 		sd  s2,16(sp)
  0x100000800: 00100497 		auipc  s1,0x100
  0x100000804: 81048493 		addi  s1,s1,-2032 # 100100010 <_ZL1N>
  0x100000808: 00100513 		li  a0,1
  0x10000080c: 00f4a023 		sw  a5,0(s1)
  0x100000810: 2c9020ef 		jal  1000032d8 <bench_srand>

802 Basic Block: (0x100000814, 0x100000828)
  0x100000814: 0004a503 		lw  a0,0(s1)
  0x100000818: 000ff917 		auipc  s2,0xff
  0x10000081c: 7f090913 		addi  s2,s2,2032 # 100100008 <_ZL1s>
  0x100000820: 00a5051b 		addiw  a0,a0,10
  0x100000824: 00251513 		slli  a0,a0,0x2
  0x100000828: 211020ef 		jal  100003238 <bench_alloc>

803 Basic Block: (0x10000082c, 0x10000083c)
  0x10000082c: 0004a783 		lw  a5,0(s1)
  0x100000830: 00a93023 		sd  a0,0(s2)
  0x100000834: 00a7851b 		addiw  a0,a5,10
  0x100000838: 00251513 		slli  a0,a0,0x2
  0x10000083c: 1fd020ef 		jal  100003238 <bench_alloc>

804 Basic Block: (0x100000840, 0x10000084c)
  0x100000840: 0004a783 		lw  a5,0(s1)
  0x100000844: 000ff717 		auipc  a4,0xff
  0x100000848: 7aa73e23 		sd  a0,1980(a4) # 100100000 <_ZL2sa>
  0x10000084c: 04f05263 		blez  a5,100000890 <bench_ssort_prepare+0xac>

805 Basic Block: (0x100000850, 0x100000860)
  0x100000850: 02813023 		sd  s0,32(sp)
  0x100000854: 01313423 		sd  s3,8(sp)
  0x100000858: 00000413 		li  s0,0
  0x10000085c: 01a00993 		li  s3,26
  0x100000860: 28d020ef 		jal  1000032ec <bench_rand>

806 Basic Block: (0x100000864, 0x100000884)
  0x100000864: 0335753b 		remuw  a0,a0,s3
  0x100000868: 00093783 		ld  a5,0(s2)
  0x10000086c: 00241713 		slli  a4,s0,0x2
  0x100000870: 0004a683 		lw  a3,0(s1)
  0x100000874: 00e787b3 		add  a5,a5,a4
  0x100000878: 00140413 		addi  s0,s0,1
  0x10000087c: 0004071b 		sext.w  a4,s0
  0x100000880: 00a7a023 		sw  a0,0(a5)
  0x100000884: fcd74ee3 		blt  a4,a3,100000860 <bench_ssort_prepare+0x7c>

807 Basic Block: (0x100000860, 0x100000860)
  0x100000860: 28d020ef 		jal  1000032ec <bench_rand>

808 Basic Block: (0x100000884, 0x100000884)
  0x100000884: fcd74ee3 		blt  a4,a3,100000860 <bench_ssort_prepare+0x7c>

809 Basic Block: (0x100000888, 0x1000008a0)
  0x100000888: 02013403 		ld  s0,32(sp)
  0x10000088c: 00813983 		ld  s3,8(sp)
  0x100000890: 02813083 		ld  ra,40(sp)
  0x100000894: 01813483 		ld  s1,24(sp)
  0x100000898: 01013903 		ld  s2,16(sp)
  0x10000089c: 03010113 		addi  sp,sp,48
  0x1000008a0: 00008067 		ret

810 Basic Block: (0x1000008a4, 0x1000008c0)
  0x1000008a4: 01a00693 		li  a3,26
  0x1000008a8: 000ff617 		auipc  a2,0xff
  0x1000008ac: 76862603 		lw  a2,1896(a2) # 100100010 <_ZL1N>
  0x1000008b0: 000ff597 		auipc  a1,0xff
  0x1000008b4: 7505b583 		ld  a1,1872(a1) # 100100000 <_ZL2sa>
  0x1000008b8: 000ff517 		auipc  a0,0xff
  0x1000008bc: 75053503 		ld  a0,1872(a0) # 100100008 <_ZL1s>
  0x1000008c0: a19ff06f 		j  1000002d8 <_Z11suffixArrayPiS_ii>

811 Basic Block: (0x1000002d8, 0x100000344)
  0x1000002d8: f8010113 		addi  sp,sp,-128
  0x1000002dc: 00300793 		li  a5,3
  0x1000002e0: 06913423 		sd  s1,104(sp)
  0x1000002e4: 0026049b 		addiw  s1,a2,2
  0x1000002e8: 06813823 		sd  s0,112(sp)
  0x1000002ec: 02f4c43b 		divw  s0,s1,a5
  0x1000002f0: 05513423 		sd  s5,72(sp)
  0x1000002f4: 05613023 		sd  s6,64(sp)
  0x1000002f8: 05313c23 		sd  s3,88(sp)
  0x1000002fc: 03813823 		sd  s8,48(sp)
  0x100000300: 00050993 		mv  s3,a0
  0x100000304: 06113c23 		sd  ra,120(sp)
  0x100000308: 07213023 		sd  s2,96(sp)
  0x10000030c: 05413823 		sd  s4,80(sp)
  0x100000310: 03713c23 		sd  s7,56(sp)
  0x100000314: 00068a13 		mv  s4,a3
  0x100000318: 00060b93 		mv  s7,a2
  0x10000031c: 03913423 		sd  s9,40(sp)
  0x100000320: 03a13023 		sd  s10,32(sp)
  0x100000324: 00058c93 		mv  s9,a1
  0x100000328: 01b13c23 		sd  s11,24(sp)
  0x10000032c: 02f64abb 		divw  s5,a2,a5
  0x100000330: 008a8abb 		addw  s5,s5,s0
  0x100000334: 003a8b1b 		addiw  s6,s5,3
  0x100000338: 002b1b13 		slli  s6,s6,0x2
  0x10000033c: 000b0513 		mv  a0,s6
  0x100000340: 002a8c13 		addi  s8,s5,2
  0x100000344: 6f5020ef 		jal  100003238 <bench_alloc>

812 Basic Block: (0x100000348, 0x100000374)
  0x100000348: 002c1c13 		slli  s8,s8,0x2
  0x10000034c: 01850733 		add  a4,a0,s8
  0x100000350: ffcc0d93 		addi  s11,s8,-4
  0x100000354: 00072023 		sw  zero,0(a4)
  0x100000358: ff8c0d13 		addi  s10,s8,-8
  0x10000035c: 01b50733 		add  a4,a0,s11
  0x100000360: 00072023 		sw  zero,0(a4)
  0x100000364: 01a50733 		add  a4,a0,s10
  0x100000368: 00072023 		sw  zero,0(a4)
  0x10000036c: 00050913 		mv  s2,a0
  0x100000370: 000b0513 		mv  a0,s6
  0x100000374: 6c5020ef 		jal  100003238 <bench_alloc>

813 Basic Block: (0x100000378, 0x10000039c)
  0x100000378: 01850c33 		add  s8,a0,s8
  0x10000037c: 000c2023 		sw  zero,0(s8)
  0x100000380: 01b50db3 		add  s11,a0,s11
  0x100000384: 000da023 		sw  zero,0(s11)
  0x100000388: 00241c13 		slli  s8,s0,0x2
  0x10000038c: 01a50d33 		add  s10,a0,s10
  0x100000390: 00050b13 		mv  s6,a0
  0x100000394: 000d2023 		sw  zero,0(s10)
  0x100000398: 000c0513 		mv  a0,s8
  0x10000039c: 69d020ef 		jal  100003238 <bench_alloc>

814 Basic Block: (0x1000003a0, 0x1000003a8)
  0x1000003a0: 00050d93 		mv  s11,a0
  0x1000003a4: 000c0513 		mv  a0,s8
  0x1000003a8: 691020ef 		jal  100003238 <bench_alloc>

815 Basic Block: (0x1000003ac, 0x1000003d0)
  0x1000003ac: 00300793 		li  a5,3
  0x1000003b0: 001b871b 		addiw  a4,s7,1
  0x1000003b4: 02f7473b 		divw  a4,a4,a5
  0x1000003b8: 00050c13 		mv  s8,a0
  0x1000003bc: 00000613 		li  a2,0
  0x1000003c0: 00000793 		li  a5,0
  0x1000003c4: 00300513 		li  a0,3
  0x1000003c8: 40e404bb 		subw  s1,s0,a4
  0x1000003cc: 017485bb 		addw  a1,s1,s7
  0x1000003d0: 02b05263 		blez  a1,1000003f4 <_Z11suffixArrayPiS_ii+0x11c>

816 Basic Block: (0x1000003d4, 0x1000003e0)
  0x1000003d4: 02a7e73b 		remw  a4,a5,a0
  0x1000003d8: 00261693 		slli  a3,a2,0x2
  0x1000003dc: 00d906b3 		add  a3,s2,a3
  0x1000003e0: 00070663 		beqz  a4,1000003ec <_Z11suffixArrayPiS_ii+0x114>

817 Basic Block: (0x1000003ec, 0x1000003f0)
  0x1000003ec: 0017879b 		addiw  a5,a5,1
  0x1000003f0: feb792e3 		bne  a5,a1,1000003d4 <_Z11suffixArrayPiS_ii+0xfc>

818 Basic Block: (0x1000003e4, 0x1000003f0)
  0x1000003e4: 00f6a023 		sw  a5,0(a3)
  0x1000003e8: 0016061b 		addiw  a2,a2,1
  0x1000003ec: 0017879b 		addiw  a5,a5,1
  0x1000003f0: feb792e3 		bne  a5,a1,1000003d4 <_Z11suffixArrayPiS_ii+0xfc>

819 Basic Block: (0x1000003f0, 0x1000003f0)
  0x1000003f0: feb792e3 		bne  a5,a1,1000003d4 <_Z11suffixArrayPiS_ii+0xfc>

820 Basic Block: (0x1000003f4, 0x100000408)
  0x1000003f4: 000a0713 		mv  a4,s4
  0x1000003f8: 000a8693 		mv  a3,s5
  0x1000003fc: 00898613 		addi  a2,s3,8
  0x100000400: 000b0593 		mv  a1,s6
  0x100000404: 00090513 		mv  a0,s2
  0x100000408: d9dff0ef 		jal  1000001a4 <_ZL9radixPassPiS_S_ii>

821 Basic Block: (0x1000001a4, 0x1000001dc)
  0x1000001a4: fd010113 		addi  sp,sp,-48
  0x1000001a8: 0017079b 		addiw  a5,a4,1
  0x1000001ac: 02813023 		sd  s0,32(sp)
  0x1000001b0: 01413023 		sd  s4,0(sp)
  0x1000001b4: 00050413 		mv  s0,a0
  0x1000001b8: 00070a13 		mv  s4,a4
  0x1000001bc: 00279513 		slli  a0,a5,0x2
  0x1000001c0: 00913c23 		sd  s1,24(sp)
  0x1000001c4: 01213823 		sd  s2,16(sp)
  0x1000001c8: 01313423 		sd  s3,8(sp)
  0x1000001cc: 02113423 		sd  ra,40(sp)
  0x1000001d0: 00058913 		mv  s2,a1
  0x1000001d4: 00060493 		mv  s1,a2
  0x1000001d8: 00068993 		mv  s3,a3
  0x1000001dc: 05c030ef 		jal  100003238 <bench_alloc>

822 Basic Block: (0x1000001e0, 0x1000001e0)
  0x1000001e0: 0e0a4863 		bltz  s4,1000002d0 <_ZL9radixPassPiS_S_ii+0x12c>

823 Basic Block: (0x1000001e4, 0x1000001fc)
  0x1000001e4: 001a0713 		addi  a4,s4,1
  0x1000001e8: 00271713 		slli  a4,a4,0x2
  0x1000001ec: 00050793 		mv  a5,a0
  0x1000001f0: 00a70733 		add  a4,a4,a0
  0x1000001f4: 0007a023 		sw  zero,0(a5)
  0x1000001f8: 00478793 		addi  a5,a5,4
  0x1000001fc: fef71ce3 		bne  a4,a5,1000001f4 <_ZL9radixPassPiS_S_ii+0x50>

824 Basic Block: (0x1000001f4, 0x1000001fc)
  0x1000001f4: 0007a023 		sw  zero,0(a5)
  0x1000001f8: 00478793 		addi  a5,a5,4
  0x1000001fc: fef71ce3 		bne  a4,a5,1000001f4 <_ZL9radixPassPiS_S_ii+0x50>

825 Basic Block: (0x100000200, 0x100000200)
  0x100000200: 05305063 		blez  s3,100000240 <_ZL9radixPassPiS_S_ii+0x9c>

826 Basic Block: (0x100000204, 0x100000238)
  0x100000204: 00040613 		mv  a2,s0
  0x100000208: 00000893 		li  a7,0
  0x10000020c: 00062783 		lw  a5,0(a2)
  0x100000210: 0018889b 		addiw  a7,a7,1
  0x100000214: 00460613 		addi  a2,a2,4
  0x100000218: 00279793 		slli  a5,a5,0x2
  0x10000021c: 00f487b3 		add  a5,s1,a5
  0x100000220: 0007a783 		lw  a5,0(a5)
  0x100000224: 00279793 		slli  a5,a5,0x2
  0x100000228: 00f507b3 		add  a5,a0,a5
  0x10000022c: 0007a803 		lw  a6,0(a5)
  0x100000230: 0018081b 		addiw  a6,a6,1
  0x100000234: 0107a023 		sw  a6,0(a5)
  0x100000238: fd38cae3 		blt  a7,s3,10000020c <_ZL9radixPassPiS_S_ii+0x68>

827 Basic Block: (0x10000020c, 0x100000238)
  0x10000020c: 00062783 		lw  a5,0(a2)
  0x100000210: 0018889b 		addiw  a7,a7,1
  0x100000214: 00460613 		addi  a2,a2,4
  0x100000218: 00279793 		slli  a5,a5,0x2
  0x10000021c: 00f487b3 		add  a5,s1,a5
  0x100000220: 0007a783 		lw  a5,0(a5)
  0x100000224: 00279793 		slli  a5,a5,0x2
  0x100000228: 00f507b3 		add  a5,a0,a5
  0x10000022c: 0007a803 		lw  a6,0(a5)
  0x100000230: 0018081b 		addiw  a6,a6,1
  0x100000234: 0107a023 		sw  a6,0(a5)
  0x100000238: fd38cae3 		blt  a7,s3,10000020c <_ZL9radixPassPiS_S_ii+0x68>

828 Basic Block: (0x100000238, 0x100000238)
  0x100000238: fd38cae3 		blt  a7,s3,10000020c <_ZL9radixPassPiS_S_ii+0x68>

829 Basic Block: (0x10000023c, 0x10000023c)
  0x10000023c: 020a4663 		bltz  s4,100000268 <_ZL9radixPassPiS_S_ii+0xc4>

830 Basic Block: (0x100000240, 0x100000260)
  0x100000240: 00050793 		mv  a5,a0
  0x100000244: 00000893 		li  a7,0
  0x100000248: 00000813 		li  a6,0
  0x10000024c: 0007a683 		lw  a3,0(a5)
  0x100000250: 0018081b 		addiw  a6,a6,1
  0x100000254: 0117a023 		sw  a7,0(a5)
  0x100000258: 011688bb 		addw  a7,a3,a7
  0x10000025c: 00478793 		addi  a5,a5,4
  0x100000260: ff0a56e3 		bge  s4,a6,10000024c <_ZL9radixPassPiS_S_ii+0xa8>

831 Basic Block: (0x10000024c, 0x100000260)
  0x10000024c: 0007a683 		lw  a3,0(a5)
  0x100000250: 0018081b 		addiw  a6,a6,1
  0x100000254: 0117a023 		sw  a7,0(a5)
  0x100000258: 011688bb 		addw  a7,a3,a7
  0x10000025c: 00478793 		addi  a5,a5,4
  0x100000260: ff0a56e3 		bge  s4,a6,10000024c <_ZL9radixPassPiS_S_ii+0xa8>

832 Basic Block: (0x100000264, 0x100000264)
  0x100000264: 05305663 		blez  s3,1000002b0 <_ZL9radixPassPiS_S_ii+0x10c>

833 Basic Block: (0x100000268, 0x1000002ac)
  0x100000268: 00299993 		slli  s3,s3,0x2
  0x10000026c: 00040813 		mv  a6,s0
  0x100000270: 013409b3 		add  s3,s0,s3
  0x100000274: 00082783 		lw  a5,0(a6)
  0x100000278: 00480813 		addi  a6,a6,4
  0x10000027c: 00279793 		slli  a5,a5,0x2
  0x100000280: 00f487b3 		add  a5,s1,a5
  0x100000284: 0007a703 		lw  a4,0(a5)
  0x100000288: 00271713 		slli  a4,a4,0x2
  0x10000028c: 00e50733 		add  a4,a0,a4
  0x100000290: 00072783 		lw  a5,0(a4)
  0x100000294: 0017869b 		addiw  a3,a5,1
  0x100000298: 00d72023 		sw  a3,0(a4)
  0x10000029c: ffc82703 		lw  a4,-4(a6)
  0x1000002a0: 00279793 		slli  a5,a5,0x2
  0x1000002a4: 00f907b3 		add  a5,s2,a5
  0x1000002a8: 00e7a023 		sw  a4,0(a5)
  0x1000002ac: fd0994e3 		bne  s3,a6,100000274 <_ZL9radixPassPiS_S_ii+0xd0>

834 Basic Block: (0x100000274, 0x1000002ac)
  0x100000274: 00082783 		lw  a5,0(a6)
  0x100000278: 00480813 		addi  a6,a6,4
  0x10000027c: 00279793 		slli  a5,a5,0x2
  0x100000280: 00f487b3 		add  a5,s1,a5
  0x100000284: 0007a703 		lw  a4,0(a5)
  0x100000288: 00271713 		slli  a4,a4,0x2
  0x10000028c: 00e50733 		add  a4,a0,a4
  0x100000290: 00072783 		lw  a5,0(a4)
  0x100000294: 0017869b 		addiw  a3,a5,1
  0x100000298: 00d72023 		sw  a3,0(a4)
  0x10000029c: ffc82703 		lw  a4,-4(a6)
  0x1000002a0: 00279793 		slli  a5,a5,0x2
  0x1000002a4: 00f907b3 		add  a5,s2,a5
  0x1000002a8: 00e7a023 		sw  a4,0(a5)
  0x1000002ac: fd0994e3 		bne  s3,a6,100000274 <_ZL9radixPassPiS_S_ii+0xd0>

835 Basic Block: (0x1000002ac, 0x1000002ac)
  0x1000002ac: fd0994e3 		bne  s3,a6,100000274 <_ZL9radixPassPiS_S_ii+0xd0>

836 Basic Block: (0x1000002b0, 0x1000002cc)
  0x1000002b0: 02813083 		ld  ra,40(sp)
  0x1000002b4: 02013403 		ld  s0,32(sp)
  0x1000002b8: 01813483 		ld  s1,24(sp)
  0x1000002bc: 01013903 		ld  s2,16(sp)
  0x1000002c0: 00813983 		ld  s3,8(sp)
  0x1000002c4: 00013a03 		ld  s4,0(sp)
  0x1000002c8: 03010113 		addi  sp,sp,48
  0x1000002cc: 00008067 		ret

837 Basic Block: (0x10000040c, 0x100000420)
  0x10000040c: 000a0713 		mv  a4,s4
  0x100000410: 000a8693 		mv  a3,s5
  0x100000414: 00498613 		addi  a2,s3,4
  0x100000418: 00090593 		mv  a1,s2
  0x10000041c: 000b0513 		mv  a0,s6
  0x100000420: d85ff0ef 		jal  1000001a4 <_ZL9radixPassPiS_S_ii>

838 Basic Block: (0x100000424, 0x100000438)
  0x100000424: 000a0713 		mv  a4,s4
  0x100000428: 000a8693 		mv  a3,s5
  0x10000042c: 00098613 		mv  a2,s3
  0x100000430: 000b0593 		mv  a1,s6
  0x100000434: 00090513 		mv  a0,s2
  0x100000438: d6dff0ef 		jal  1000001a4 <_ZL9radixPassPiS_S_ii>

839 Basic Block: (0x10000043c, 0x10000043c)
  0x10000043c: 0d505863 		blez  s5,10000050c <_Z11suffixArrayPiS_ii+0x234>

840 Basic Block: (0x100000440, 0x100000490)
  0x100000440: 002a9893 		slli  a7,s5,0x2
  0x100000444: 000b0d13 		mv  s10,s6
  0x100000448: 016888b3 		add  a7,a7,s6
  0x10000044c: 000b0613 		mv  a2,s6
  0x100000450: fff00513 		li  a0,-1
  0x100000454: fff00e93 		li  t4,-1
  0x100000458: fff00593 		li  a1,-1
  0x10000045c: 00000693 		li  a3,0
  0x100000460: 00300313 		li  t1,3
  0x100000464: 00100e13 		li  t3,1
  0x100000468: 00062783 		lw  a5,0(a2)
  0x10000046c: 00058713 		mv  a4,a1
  0x100000470: 000e8f93 		mv  t6,t4
  0x100000474: 00279813 		slli  a6,a5,0x2
  0x100000478: 01098833 		add  a6,s3,a6
  0x10000047c: 00082583 		lw  a1,0(a6)
  0x100000480: 00050293 		mv  t0,a0
  0x100000484: 0267ef3b 		remw  t5,a5,t1
  0x100000488: 00482e83 		lw  t4,4(a6)
  0x10000048c: 00882503 		lw  a0,8(a6)
  0x100000490: 1ee58a63 		beq  a1,a4,100000684 <_Z11suffixArrayPiS_ii+0x3ac>

841 Basic Block: (0x100000494, 0x1000004a8)
  0x100000494: 0016869b 		addiw  a3,a3,1
  0x100000498: 0267c7bb 		divw  a5,a5,t1
  0x10000049c: 0087873b 		addw  a4,a5,s0
  0x1000004a0: 00271713 		slli  a4,a4,0x2
  0x1000004a4: 00e90733 		add  a4,s2,a4
  0x1000004a8: 1fcf0c63 		beq  t5,t3,1000006a0 <_Z11suffixArrayPiS_ii+0x3c8>

842 Basic Block: (0x1000006a0, 0x1000006ac)
  0x1000006a0: 00279793 		slli  a5,a5,0x2
  0x1000006a4: 00f907b3 		add  a5,s2,a5
  0x1000006a8: 00d7a023 		sw  a3,0(a5)
  0x1000006ac: e05ff06f 		j  1000004b0 <_Z11suffixArrayPiS_ii+0x1d8>

843 Basic Block: (0x1000004b0, 0x1000004b4)
  0x1000004b0: 00460613 		addi  a2,a2,4
  0x1000004b4: fb161ae3 		bne  a2,a7,100000468 <_Z11suffixArrayPiS_ii+0x190>

844 Basic Block: (0x100000468, 0x100000490)
  0x100000468: 00062783 		lw  a5,0(a2)
  0x10000046c: 00058713 		mv  a4,a1
  0x100000470: 000e8f93 		mv  t6,t4
  0x100000474: 00279813 		slli  a6,a5,0x2
  0x100000478: 01098833 		add  a6,s3,a6
  0x10000047c: 00082583 		lw  a1,0(a6)
  0x100000480: 00050293 		mv  t0,a0
  0x100000484: 0267ef3b 		remw  t5,a5,t1
  0x100000488: 00482e83 		lw  t4,4(a6)
  0x10000048c: 00882503 		lw  a0,8(a6)
  0x100000490: 1ee58a63 		beq  a1,a4,100000684 <_Z11suffixArrayPiS_ii+0x3ac>

845 Basic Block: (0x100000684, 0x100000684)
  0x100000684: e1df98e3 		bne  t6,t4,100000494 <_Z11suffixArrayPiS_ii+0x1bc>

846 Basic Block: (0x100000688, 0x100000688)
  0x100000688: e0a296e3 		bne  t0,a0,100000494 <_Z11suffixArrayPiS_ii+0x1bc>

847 Basic Block: (0x10000068c, 0x10000069c)
  0x10000068c: 0267c7bb 		divw  a5,a5,t1
  0x100000690: 0087873b 		addw  a4,a5,s0
  0x100000694: 00271713 		slli  a4,a4,0x2
  0x100000698: 00e90733 		add  a4,s2,a4
  0x10000069c: e1cf18e3 		bne  t5,t3,1000004ac <_Z11suffixArrayPiS_ii+0x1d4>

848 Basic Block: (0x1000004ac, 0x1000004b4)
  0x1000004ac: 00d72023 		sw  a3,0(a4)
  0x1000004b0: 00460613 		addi  a2,a2,4
  0x1000004b4: fb161ae3 		bne  a2,a7,100000468 <_Z11suffixArrayPiS_ii+0x190>

849 Basic Block: (0x100000490, 0x100000490)
  0x100000490: 1ee58a63 		beq  a1,a4,100000684 <_Z11suffixArrayPiS_ii+0x3ac>

850 Basic Block: (0x1000004b4, 0x1000004b4)
  0x1000004b4: fb161ae3 		bne  a2,a7,100000468 <_Z11suffixArrayPiS_ii+0x190>

851 Basic Block: (0x10000069c, 0x10000069c)
  0x10000069c: e1cf18e3 		bne  t5,t3,1000004ac <_Z11suffixArrayPiS_ii+0x1d4>

852 Basic Block: (0x1000006ac, 0x1000006ac)
  0x1000006ac: e05ff06f 		j  1000004b0 <_Z11suffixArrayPiS_ii+0x1d8>

853 Basic Block: (0x1000004b8, 0x1000004c0)
  0x1000004b8: 00090613 		mv  a2,s2
  0x1000004bc: 00000713 		li  a4,0
  0x1000004c0: 2f56c263 		blt  a3,s5,1000007a4 <_Z11suffixArrayPiS_ii+0x4cc>

854 Basic Block: (0x1000007a4, 0x1000007b4)
  0x1000007a4: 000a8613 		mv  a2,s5
  0x1000007a8: 000b0593 		mv  a1,s6
  0x1000007ac: 00090513 		mv  a0,s2
  0x1000007b0: 01113423 		sd  a7,8(sp)
  0x1000007b4: b25ff0ef 		jal  1000002d8 <_Z11suffixArrayPiS_ii>

855 Basic Block: (0x1000003e0, 0x1000003e0)
  0x1000003e0: 00070663 		beqz  a4,1000003ec <_Z11suffixArrayPiS_ii+0x114>

856 Basic Block: (0x1000001fc, 0x1000001fc)
  0x1000001fc: fef71ce3 		bne  a4,a5,1000001f4 <_ZL9radixPassPiS_S_ii+0x50>

857 Basic Block: (0x100000260, 0x100000260)
  0x100000260: ff0a56e3 		bge  s4,a6,10000024c <_ZL9radixPassPiS_S_ii+0xa8>

858 Basic Block: (0x1000004a8, 0x1000004a8)
  0x1000004a8: 1fcf0c63 		beq  t5,t3,1000006a0 <_Z11suffixArrayPiS_ii+0x3c8>

859 Basic Block: (0x1000004c4, 0x1000004dc)
  0x1000004c4: 00062783 		lw  a5,0(a2)
  0x1000004c8: 00460613 		addi  a2,a2,4
  0x1000004cc: 00279793 		slli  a5,a5,0x2
  0x1000004d0: 00fb07b3 		add  a5,s6,a5
  0x1000004d4: fee7ae23 		sw  a4,-4(a5)
  0x1000004d8: 0017071b 		addiw  a4,a4,1
  0x1000004dc: feea94e3 		bne  s5,a4,1000004c4 <_Z11suffixArrayPiS_ii+0x1ec>

860 Basic Block: (0x1000004dc, 0x1000004dc)
  0x1000004dc: feea94e3 		bne  s5,a4,1000004c4 <_Z11suffixArrayPiS_ii+0x1ec>

861 Basic Block: (0x1000004e0, 0x1000004fc)
  0x1000004e0: 00000613 		li  a2,0
  0x1000004e4: 000d2703 		lw  a4,0(s10)
  0x1000004e8: 00261793 		slli  a5,a2,0x2
  0x1000004ec: 004d0d13 		addi  s10,s10,4
  0x1000004f0: 0017169b 		slliw  a3,a4,0x1
  0x1000004f4: 00fd87b3 		add  a5,s11,a5
  0x1000004f8: 00e686bb 		addw  a3,a3,a4
  0x1000004fc: 00875663 		bge  a4,s0,100000508 <_Z11suffixArrayPiS_ii+0x230>

862 Basic Block: (0x100000500, 0x100000508)
  0x100000500: 00d7a023 		sw  a3,0(a5)
  0x100000504: 0016061b 		addiw  a2,a2,1
  0x100000508: fd1d1ee3 		bne  s10,a7,1000004e4 <_Z11suffixArrayPiS_ii+0x20c>

863 Basic Block: (0x1000004e4, 0x1000004fc)
  0x1000004e4: 000d2703 		lw  a4,0(s10)
  0x1000004e8: 00261793 		slli  a5,a2,0x2
  0x1000004ec: 004d0d13 		addi  s10,s10,4
  0x1000004f0: 0017169b 		slliw  a3,a4,0x1
  0x1000004f4: 00fd87b3 		add  a5,s11,a5
  0x1000004f8: 00e686bb 		addw  a3,a3,a4
  0x1000004fc: 00875663 		bge  a4,s0,100000508 <_Z11suffixArrayPiS_ii+0x230>

864 Basic Block: (0x100000508, 0x100000508)
  0x100000508: fd1d1ee3 		bne  s10,a7,1000004e4 <_Z11suffixArrayPiS_ii+0x20c>

865 Basic Block: (0x1000004fc, 0x1000004fc)
  0x1000004fc: 00875663 		bge  a4,s0,100000508 <_Z11suffixArrayPiS_ii+0x230>

866 Basic Block: (0x10000050c, 0x100000520)
  0x10000050c: 00098613 		mv  a2,s3
  0x100000510: 000a0713 		mv  a4,s4
  0x100000514: 00040693 		mv  a3,s0
  0x100000518: 000c0593 		mv  a1,s8
  0x10000051c: 000d8513 		mv  a0,s11
  0x100000520: c85ff0ef 		jal  1000001a4 <_ZL9radixPassPiS_S_ii>

867 Basic Block: (0x100000524, 0x100000530)
  0x100000524: 00000613 		li  a2,0
  0x100000528: 00000813 		li  a6,0
  0x10000052c: 00300893 		li  a7,3
  0x100000530: 05704263 		bgtz  s7,100000574 <_Z11suffixArrayPiS_ii+0x29c>

868 Basic Block: (0x100000574, 0x1000005a0)
  0x100000574: 00281793 		slli  a5,a6,0x2
  0x100000578: 00fc06b3 		add  a3,s8,a5
  0x10000057c: 0006a303 		lw  t1,0(a3)
  0x100000580: 00249793 		slli  a5,s1,0x2
  0x100000584: 00fb05b3 		add  a1,s6,a5
  0x100000588: 03134ebb 		divw  t4,t1,a7
  0x10000058c: 0005a703 		lw  a4,0(a1)
  0x100000590: 00231513 		slli  a0,t1,0x2
  0x100000594: 00a98533 		add  a0,s3,a0
  0x100000598: 00052e03 		lw  t3,0(a0)
  0x10000059c: 000e8f13 		mv  t5,t4
  0x1000005a0: f8874ce3 		blt  a4,s0,100000538 <_Z11suffixArrayPiS_ii+0x260>

869 Basic Block: (0x1000005a4, 0x1000005c0)
  0x1000005a4: 4087073b 		subw  a4,a4,s0
  0x1000005a8: 0017179b 		slliw  a5,a4,0x1
  0x1000005ac: 00e787bb 		addw  a5,a5,a4
  0x1000005b0: 0027879b 		addiw  a5,a5,2
  0x1000005b4: 00279e93 		slli  t4,a5,0x2
  0x1000005b8: 01d98eb3 		add  t4,s3,t4
  0x1000005bc: 000eaf83 		lw  t6,0(t4)
  0x1000005c0: 01cfca63 		blt  t6,t3,1000005d4 <_Z11suffixArrayPiS_ii+0x2fc>

870 Basic Block: (0x1000005c4, 0x1000005c4)
  0x1000005c4: f9cf9ae3 		bne  t6,t3,100000558 <_Z11suffixArrayPiS_ii+0x280>

871 Basic Block: (0x1000005c8, 0x1000005d0)
  0x1000005c8: 004eae03 		lw  t3,4(t4)
  0x1000005cc: 00452503 		lw  a0,4(a0)
  0x1000005d0: 1aae5463 		bge  t3,a0,100000778 <_Z11suffixArrayPiS_ii+0x4a0>

872 Basic Block: (0x1000005d4, 0x1000005e4)
  0x1000005d4: 00261713 		slli  a4,a2,0x2
  0x1000005d8: 00ec85b3 		add  a1,s9,a4
  0x1000005dc: 00f5a023 		sw  a5,0(a1)
  0x1000005e0: 0014849b 		addiw  s1,s1,1
  0x1000005e4: f89a94e3 		bne  s5,s1,10000056c <_Z11suffixArrayPiS_ii+0x294>

873 Basic Block: (0x10000056c, 0x100000570)
  0x10000056c: 0016061b 		addiw  a2,a2,1
  0x100000570: 0d765c63 		bge  a2,s7,100000648 <_Z11suffixArrayPiS_ii+0x370>

874 Basic Block: (0x100000538, 0x100000550)
  0x100000538: 0017179b 		slliw  a5,a4,0x1
  0x10000053c: 00e787bb 		addw  a5,a5,a4
  0x100000540: 0017879b 		addiw  a5,a5,1
  0x100000544: 00279513 		slli  a0,a5,0x2
  0x100000548: 00a98533 		add  a0,s3,a0
  0x10000054c: 00052503 		lw  a0,0(a0) # 2000 <i+0x1fe0>
  0x100000550: 09c54263 		blt  a0,t3,1000005d4 <_Z11suffixArrayPiS_ii+0x2fc>

875 Basic Block: (0x100000554, 0x100000554)
  0x100000554: 15c50e63 		beq  a0,t3,1000006b0 <_Z11suffixArrayPiS_ii+0x3d8>

876 Basic Block: (0x100000558, 0x100000568)
  0x100000558: 00261793 		slli  a5,a2,0x2
  0x10000055c: 00fc8733 		add  a4,s9,a5
  0x100000560: 00672023 		sw  t1,0(a4)
  0x100000564: 0018081b 		addiw  a6,a6,1
  0x100000568: 19040063 		beq  s0,a6,1000006e8 <_Z11suffixArrayPiS_ii+0x410>

877 Basic Block: (0x1000006b0, 0x1000006cc)
  0x1000006b0: 0087073b 		addw  a4,a4,s0
  0x1000006b4: 00271713 		slli  a4,a4,0x2
  0x1000006b8: 002e9e93 		slli  t4,t4,0x2
  0x1000006bc: 00e90733 		add  a4,s2,a4
  0x1000006c0: 01d90eb3 		add  t4,s2,t4
  0x1000006c4: 00072503 		lw  a0,0(a4)
  0x1000006c8: 000ea703 		lw  a4,0(t4)
  0x1000006cc: e8a746e3 		blt  a4,a0,100000558 <_Z11suffixArrayPiS_ii+0x280>

878 Basic Block: (0x1000006d0, 0x1000006e0)
  0x1000006d0: 00261713 		slli  a4,a2,0x2
  0x1000006d4: 00ec85b3 		add  a1,s9,a4
  0x1000006d8: 00f5a023 		sw  a5,0(a1)
  0x1000006dc: 0014849b 		addiw  s1,s1,1
  0x1000006e0: e89a96e3 		bne  s5,s1,10000056c <_Z11suffixArrayPiS_ii+0x294>

879 Basic Block: (0x100000778, 0x100000778)
  0x100000778: deae10e3 		bne  t3,a0,100000558 <_Z11suffixArrayPiS_ii+0x280>

880 Basic Block: (0x1000005e4, 0x1000005e4)
  0x1000005e4: f89a94e3 		bne  s5,s1,10000056c <_Z11suffixArrayPiS_ii+0x294>

881 Basic Block: (0x1000005c0, 0x1000005c0)
  0x1000005c0: 01cfca63 		blt  t6,t3,1000005d4 <_Z11suffixArrayPiS_ii+0x2fc>

882 Basic Block: (0x1000005a0, 0x1000005a0)
  0x1000005a0: f8874ce3 		blt  a4,s0,100000538 <_Z11suffixArrayPiS_ii+0x260>

883 Basic Block: (0x1000006cc, 0x1000006cc)
  0x1000006cc: e8a746e3 		blt  a4,a0,100000558 <_Z11suffixArrayPiS_ii+0x280>

884 Basic Block: (0x1000006e0, 0x1000006e0)
  0x1000006e0: e89a96e3 		bne  s5,s1,10000056c <_Z11suffixArrayPiS_ii+0x294>

885 Basic Block: (0x100000550, 0x100000550)
  0x100000550: 09c54263 		blt  a0,t3,1000005d4 <_Z11suffixArrayPiS_ii+0x2fc>

886 Basic Block: (0x1000005d0, 0x1000005d0)
  0x1000005d0: 1aae5463 		bge  t3,a0,100000778 <_Z11suffixArrayPiS_ii+0x4a0>

887 Basic Block: (0x100000568, 0x100000568)
  0x100000568: 19040063 		beq  s0,a6,1000006e8 <_Z11suffixArrayPiS_ii+0x410>

888 Basic Block: (0x1000006e8, 0x1000006f0)
  0x1000006e8: 0016061b 		addiw  a2,a2,1
  0x1000006ec: 00060e93 		mv  t4,a2
  0x1000006f0: e754dee3 		bge  s1,s5,10000056c <_Z11suffixArrayPiS_ii+0x294>

889 Basic Block: (0x1000006f4, 0x100000720)
  0x1000006f4: 409a8e3b 		subw  t3,s5,s1
  0x1000006f8: 020e1e13 		slli  t3,t3,0x20
  0x1000006fc: 020e5e13 		srli  t3,t3,0x20
  0x100000700: 009e0e33 		add  t3,t3,s1
  0x100000704: 00478713 		addi  a4,a5,4
  0x100000708: 002e1e13 		slli  t3,t3,0x2
  0x10000070c: 00058793 		mv  a5,a1
  0x100000710: 000a8f1b 		sext.w  t5,s5
  0x100000714: 00ec85b3 		add  a1,s9,a4
  0x100000718: 0004861b 		sext.w  a2,s1
  0x10000071c: 01cb0e33 		add  t3,s6,t3
  0x100000720: 0180006f 		j  100000738 <_Z11suffixArrayPiS_ii+0x460>

890 Basic Block: (0x100000738, 0x100000750)
  0x100000738: 0007a683 		lw  a3,0(a5)
  0x10000073c: 4086833b 		subw  t1,a3,s0
  0x100000740: 0016951b 		slliw  a0,a3,0x1
  0x100000744: 0013171b 		slliw  a4,t1,0x1
  0x100000748: 00d5053b 		addw  a0,a0,a3
  0x10000074c: 0067073b 		addw  a4,a4,t1
  0x100000750: fc86cae3 		blt  a3,s0,100000724 <_Z11suffixArrayPiS_ii+0x44c>

891 Basic Block: (0x100000724, 0x100000734)
  0x100000724: 0015071b 		addiw  a4,a0,1
  0x100000728: 00e5a023 		sw  a4,0(a1)
  0x10000072c: 00478793 		addi  a5,a5,4
  0x100000730: 00458593 		addi  a1,a1,4
  0x100000734: 02fe0a63 		beq  t3,a5,100000768 <_Z11suffixArrayPiS_ii+0x490>

892 Basic Block: (0x100000754, 0x100000764)
  0x100000754: 0027071b 		addiw  a4,a4,2
  0x100000758: 00e5a023 		sw  a4,0(a1)
  0x10000075c: 00478793 		addi  a5,a5,4
  0x100000760: 00458593 		addi  a1,a1,4
  0x100000764: fcfe1ae3 		bne  t3,a5,100000738 <_Z11suffixArrayPiS_ii+0x460>

893 Basic Block: (0x100000768, 0x100000774)
  0x100000768: 40ce863b 		subw  a2,t4,a2
  0x10000076c: 01e6063b 		addw  a2,a2,t5
  0x100000770: 000a8493 		mv  s1,s5
  0x100000774: df9ff06f 		j  10000056c <_Z11suffixArrayPiS_ii+0x294>

894 Basic Block: (0x100000648, 0x100000680)
  0x100000648: 07813083 		ld  ra,120(sp)
  0x10000064c: 07013403 		ld  s0,112(sp)
  0x100000650: 06813483 		ld  s1,104(sp)
  0x100000654: 06013903 		ld  s2,96(sp)
  0x100000658: 05813983 		ld  s3,88(sp)
  0x10000065c: 05013a03 		ld  s4,80(sp)
  0x100000660: 04813a83 		ld  s5,72(sp)
  0x100000664: 04013b03 		ld  s6,64(sp)
  0x100000668: 03813b83 		ld  s7,56(sp)
  0x10000066c: 03013c03 		ld  s8,48(sp)
  0x100000670: 02813c83 		ld  s9,40(sp)
  0x100000674: 02013d03 		ld  s10,32(sp)
  0x100000678: 01813d83 		ld  s11,24(sp)
  0x10000067c: 08010113 		addi  sp,sp,128
  0x100000680: 00008067 		ret

895 Basic Block: (0x1000007b8, 0x1000007dc)
  0x1000007b8: 00813883 		ld  a7,8(sp)
  0x1000007bc: 000b0693 		mv  a3,s6
  0x1000007c0: 00000713 		li  a4,0
  0x1000007c4: 0006a783 		lw  a5,0(a3)
  0x1000007c8: 0017071b 		addiw  a4,a4,1
  0x1000007cc: 00468693 		addi  a3,a3,4
  0x1000007d0: 00279793 		slli  a5,a5,0x2
  0x1000007d4: 00f907b3 		add  a5,s2,a5
  0x1000007d8: 00e7a023 		sw  a4,0(a5)
  0x1000007dc: ff5714e3 		bne  a4,s5,1000007c4 <_Z11suffixArrayPiS_ii+0x4ec>

896 Basic Block: (0x1000007c4, 0x1000007dc)
  0x1000007c4: 0006a783 		lw  a5,0(a3)
  0x1000007c8: 0017071b 		addiw  a4,a4,1
  0x1000007cc: 00468693 		addi  a3,a3,4
  0x1000007d0: 00279793 		slli  a5,a5,0x2
  0x1000007d4: 00f907b3 		add  a5,s2,a5
  0x1000007d8: 00e7a023 		sw  a4,0(a5)
  0x1000007dc: ff5714e3 		bne  a4,s5,1000007c4 <_Z11suffixArrayPiS_ii+0x4ec>

897 Basic Block: (0x1000007dc, 0x1000007dc)
  0x1000007dc: ff5714e3 		bne  a4,s5,1000007c4 <_Z11suffixArrayPiS_ii+0x4ec>

898 Basic Block: (0x1000007e0, 0x1000007e0)
  0x1000007e0: d01ff06f 		j  1000004e0 <_Z11suffixArrayPiS_ii+0x208>

899 Basic Block: (0x10000077c, 0x10000079c)
  0x10000077c: 0017071b 		addiw  a4,a4,1
  0x100000780: 008f053b 		addw  a0,t5,s0
  0x100000784: 00271713 		slli  a4,a4,0x2
  0x100000788: 00251513 		slli  a0,a0,0x2
  0x10000078c: 00e90733 		add  a4,s2,a4
  0x100000790: 00a90533 		add  a0,s2,a0
  0x100000794: 00072e03 		lw  t3,0(a4)
  0x100000798: 00052703 		lw  a4,0(a0)
  0x10000079c: dbc74ee3 		blt  a4,t3,100000558 <_Z11suffixArrayPiS_ii+0x280>

900 Basic Block: (0x1000007a0, 0x1000007a0)
  0x1000007a0: e35ff06f 		j  1000005d4 <_Z11suffixArrayPiS_ii+0x2fc>

901 Basic Block: (0x10000079c, 0x10000079c)
  0x10000079c: dbc74ee3 		blt  a4,t3,100000558 <_Z11suffixArrayPiS_ii+0x280>

902 Basic Block: (0x100000570, 0x100000570)
  0x100000570: 0d765c63 		bge  a2,s7,100000648 <_Z11suffixArrayPiS_ii+0x370>

903 Basic Block: (0x1000008c4, 0x1000008e4)
  0x1000008c4: 000ff597 		auipc  a1,0xff
  0x1000008c8: 74c5a583 		lw  a1,1868(a1) # 100100010 <_ZL1N>
  0x1000008cc: 000ff517 		auipc  a0,0xff
  0x1000008d0: 73453503 		ld  a0,1844(a0) # 100100000 <_ZL2sa>
  0x1000008d4: 00259593 		slli  a1,a1,0x2
  0x1000008d8: ff010113 		addi  sp,sp,-16
  0x1000008dc: 00b505b3 		add  a1,a0,a1
  0x1000008e0: 00113423 		sd  ra,8(sp)
  0x1000008e4: 23d020ef 		jal  100003320 <checksum>

904 Basic Block: (0x1000008e8, 0x100000908)
  0x1000008e8: 00100797 		auipc  a5,0x100
  0x1000008ec: 8287b783 		ld  a5,-2008(a5) # 100100110 <setting>
  0x1000008f0: 0187a783 		lw  a5,24(a5)
  0x1000008f4: 00813083 		ld  ra,8(sp)
  0x1000008f8: 0005051b 		sext.w  a0,a0
  0x1000008fc: 40a78533 		sub  a0,a5,a0
  0x100000900: 00153513 		seqz  a0,a0
  0x100000904: 01010113 		addi  sp,sp,16
  0x100000908: 00008067 		ret

905 Basic Block: (0x1000024f4, 0x100002520)
  0x1000024f4: 000fe797 		auipc  a5,0xfe
  0x1000024f8: c1c7b783 		ld  a5,-996(a5) # 100100110 <setting>
  0x1000024fc: 0007a783 		lw  a5,0(a5)
  0x100002500: fe010113 		addi  sp,sp,-32
  0x100002504: 00113c23 		sd  ra,24(sp)
  0x100002508: 00913423 		sd  s1,8(sp)
  0x10000250c: 01213023 		sd  s2,0(sp)
  0x100002510: 000fe497 		auipc  s1,0xfe
  0x100002514: b9048493 		addi  s1,s1,-1136 # 1001000a0 <N>
  0x100002518: 00100513 		li  a0,1
  0x10000251c: 00f4a023 		sw  a5,0(s1)
  0x100002520: 5b9000ef 		jal  1000032d8 <bench_srand>

906 Basic Block: (0x100002524, 0x100002530)
  0x100002524: 0004a503 		lw  a0,0(s1)
  0x100002528: 000fe917 		auipc  s2,0xfe
  0x10000252c: b7090913 		addi  s2,s2,-1168 # 100100098 <str>
  0x100002530: 509000ef 		jal  100003238 <bench_alloc>

907 Basic Block: (0x100002534, 0x10000253c)
  0x100002534: 0004a783 		lw  a5,0(s1)
  0x100002538: 00a93023 		sd  a0,0(s2)
  0x10000253c: 02f05863 		blez  a5,10000256c <bench_md5_prepare+0x78>

908 Basic Block: (0x100002540, 0x100002548)
  0x100002540: 00813823 		sd  s0,16(sp)
  0x100002544: 00000413 		li  s0,0
  0x100002548: 5a5000ef 		jal  1000032ec <bench_rand>

909 Basic Block: (0x10000254c, 0x100002564)
  0x10000254c: 00093783 		ld  a5,0(s2)
  0x100002550: 0004a703 		lw  a4,0(s1)
  0x100002554: 008787b3 		add  a5,a5,s0
  0x100002558: 00140413 		addi  s0,s0,1
  0x10000255c: 00a78023 		sb  a0,0(a5)
  0x100002560: 0004079b 		sext.w  a5,s0
  0x100002564: fee7c2e3 		blt  a5,a4,100002548 <bench_md5_prepare+0x54>

910 Basic Block: (0x100002548, 0x100002548)
  0x100002548: 5a5000ef 		jal  1000032ec <bench_rand>

911 Basic Block: (0x100002568, 0x100002570)
  0x100002568: 01013403 		ld  s0,16(sp)
  0x10000256c: 01000513 		li  a0,16
  0x100002570: 4c9000ef 		jal  100003238 <bench_alloc>

912 Basic Block: (0x100002574, 0x10000258c)
  0x100002574: 01813083 		ld  ra,24(sp)
  0x100002578: 000fe797 		auipc  a5,0xfe
  0x10000257c: b0a7bc23 		sd  a0,-1256(a5) # 100100090 <digest>
  0x100002580: 00813483 		ld  s1,8(sp)
  0x100002584: 00013903 		ld  s2,0(sp)
  0x100002588: 02010113 		addi  sp,sp,32
  0x10000258c: 00008067 		ret

913 Basic Block: (0x100002590, 0x1000025ec)
  0x100002590: 000fe617 		auipc  a2,0xfe
  0x100002594: b1062603 		lw  a2,-1264(a2) # 1001000a0 <N>
  0x100002598: f6010113 		addi  sp,sp,-160
  0x10000259c: 00160793 		addi  a5,a2,1
  0x1000025a0: 08813c23 		sd  s0,152(sp)
  0x1000025a4: 08913823 		sd  s1,144(sp)
  0x1000025a8: 000fe417 		auipc  s0,0xfe
  0x1000025ac: af043403 		ld  s0,-1296(s0) # 100100098 <str>
  0x1000025b0: 09213423 		sd  s2,136(sp)
  0x1000025b4: 09313023 		sd  s3,128(sp)
  0x1000025b8: 07413c23 		sd  s4,120(sp)
  0x1000025bc: 07513823 		sd  s5,112(sp)
  0x1000025c0: 07613423 		sd  s6,104(sp)
  0x1000025c4: 07713023 		sd  s7,96(sp)
  0x1000025c8: 05813c23 		sd  s8,88(sp)
  0x1000025cc: 05913823 		sd  s9,80(sp)
  0x1000025d0: 05a13423 		sd  s10,72(sp)
  0x1000025d4: 03f7f693 		andi  a3,a5,63
  0x1000025d8: 03800713 		li  a4,56
  0x1000025dc: 000fe497 		auipc  s1,0xfe
  0x1000025e0: ab44b483 		ld  s1,-1356(s1) # 100100090 <digest>
  0x1000025e4: 00c405b3 		add  a1,s0,a2
  0x1000025e8: 00078313 		mv  t1,a5
  0x1000025ec: 2ae68e63 		beq  a3,a4,1000028a8 <bench_md5_run+0x318>

914 Basic Block: (0x1000025f0, 0x1000025fc)
  0x1000025f0: 03800693 		li  a3,56
  0x1000025f4: 00130313 		addi  t1,t1,1
  0x1000025f8: 03f37713 		andi  a4,t1,63
  0x1000025fc: fed71ce3 		bne  a4,a3,1000025f4 <bench_md5_run+0x64>

915 Basic Block: (0x1000025f4, 0x1000025fc)
  0x1000025f4: 00130313 		addi  t1,t1,1
  0x1000025f8: 03f37713 		andi  a4,t1,63
  0x1000025fc: fed71ce3 		bne  a4,a3,1000025f4 <bench_md5_run+0x64>

916 Basic Block: (0x100002600, 0x100002608)
  0x100002600: f8000713 		li  a4,-128
  0x100002604: 00e58023 		sb  a4,0(a1)
  0x100002608: 2a67f463 		bgeu  a5,t1,1000028b0 <bench_md5_run+0x320>

917 Basic Block: (0x10000260c, 0x10000261c)
  0x10000260c: 00f407b3 		add  a5,s0,a5
  0x100002610: 00640733 		add  a4,s0,t1
  0x100002614: 00078023 		sb  zero,0(a5)
  0x100002618: 00178793 		addi  a5,a5,1
  0x10000261c: fef71ce3 		bne  a4,a5,100002614 <bench_md5_run+0x84>

918 Basic Block: (0x100002614, 0x10000261c)
  0x100002614: 00078023 		sb  zero,0(a5)
  0x100002618: 00178793 		addi  a5,a5,1
  0x10000261c: fef71ce3 		bne  a4,a5,100002614 <bench_md5_run+0x84>

919 Basic Block: (0x100002620, 0x1000026e0)
  0x100002620: 0036159b 		slliw  a1,a2,0x3
  0x100002624: 41d65693 		srai  a3,a2,0x1d
  0x100002628: 0105d81b 		srliw  a6,a1,0x10
  0x10000262c: 0085d89b 		srliw  a7,a1,0x8
  0x100002630: 0185d51b 		srliw  a0,a1,0x18
  0x100002634: 00430793 		addi  a5,t1,4
  0x100002638: 00b70023 		sb  a1,0(a4)
  0x10000263c: 01070123 		sb  a6,2(a4)
  0x100002640: 011700a3 		sb  a7,1(a4)
  0x100002644: 00a701a3 		sb  a0,3(a4)
  0x100002648: 00f407b3 		add  a5,s0,a5
  0x10000264c: 0086d59b 		srliw  a1,a3,0x8
  0x100002650: 0106d71b 		srliw  a4,a3,0x10
  0x100002654: 01d65613 		srli  a2,a2,0x1d
  0x100002658: 0186d69b 		srliw  a3,a3,0x18
  0x10000265c: 10325f37 		lui  t5,0x10325
  0x100002660: 98baefb7 		lui  t6,0x98bae
  0x100002664: efcdb2b7 		lui  t0,0xefcdb
  0x100002668: 674523b7 		lui  t2,0x67452
  0x10000266c: 00c78023 		sb  a2,0(a5)
  0x100002670: 00b780a3 		sb  a1,1(a5)
  0x100002674: 00e78123 		sb  a4,2(a5)
  0x100002678: 00d781a3 		sb  a3,3(a5)
  0x10000267c: 476f0f13 		addi  t5,t5,1142 # 10325476 <i+0x10325456>
  0x100002680: cfef8f93 		addi  t6,t6,-770 # ffffffff98badcfe <_pmem_end+0xfffffffe58badcfe>
  0x100002684: b8928293 		addi  t0,t0,-1143 # ffffffffefcdab89 <_pmem_end+0xfffffffeafcdab89>
  0x100002688: 30138393 		addi  t2,t2,769 # 67452301 <i+0x674522e1>
  0x10000268c: 00000e93 		li  t4,0
  0x100002690: 00f00993 		li  s3,15
  0x100002694: 01f00a13 		li  s4,31
  0x100002698: 02f00813 		li  a6,47
  0x10000269c: 04000913 		li  s2,64
  0x1000026a0: 01d407b3 		add  a5,s0,t4
  0x1000026a4: 00010713 		mv  a4,sp
  0x1000026a8: 0017c583 		lbu  a1,1(a5)
  0x1000026ac: 0007c503 		lbu  a0,0(a5)
  0x1000026b0: 0027c603 		lbu  a2,2(a5)
  0x1000026b4: 0037c683 		lbu  a3,3(a5)
  0x1000026b8: 00859593 		slli  a1,a1,0x8
  0x1000026bc: 00a5e5b3 		or  a1,a1,a0
  0x1000026c0: 01061613 		slli  a2,a2,0x10
  0x1000026c4: 00b66633 		or  a2,a2,a1
  0x1000026c8: 01869693 		slli  a3,a3,0x18
  0x1000026cc: 00c6e6b3 		or  a3,a3,a2
  0x1000026d0: 00d72023 		sw  a3,0(a4)
  0x1000026d4: 00470713 		addi  a4,a4,4
  0x1000026d8: 04010693 		addi  a3,sp,64
  0x1000026dc: 00478793 		addi  a5,a5,4
  0x1000026e0: fce694e3 		bne  a3,a4,1000026a8 <bench_md5_run+0x118>

920 Basic Block: (0x1000026a8, 0x1000026e0)
  0x1000026a8: 0017c583 		lbu  a1,1(a5)
  0x1000026ac: 0007c503 		lbu  a0,0(a5)
  0x1000026b0: 0027c603 		lbu  a2,2(a5)
  0x1000026b4: 0037c683 		lbu  a3,3(a5)
  0x1000026b8: 00859593 		slli  a1,a1,0x8
  0x1000026bc: 00a5e5b3 		or  a1,a1,a0
  0x1000026c0: 01061613 		slli  a2,a2,0x10
  0x1000026c4: 00b66633 		or  a2,a2,a1
  0x1000026c8: 01869693 		slli  a3,a3,0x18
  0x1000026cc: 00c6e6b3 		or  a3,a3,a2
  0x1000026d0: 00d72023 		sw  a3,0(a4)
  0x1000026d4: 00470713 		addi  a4,a4,4
  0x1000026d8: 04010693 		addi  a3,sp,64
  0x1000026dc: 00478793 		addi  a5,a5,4
  0x1000026e0: fce694e3 		bne  a3,a4,1000026a8 <bench_md5_run+0x118>

921 Basic Block: (0x1000026e4, 0x100002714)
  0x1000026e4: 00000593 		li  a1,0
  0x1000026e8: 0003eb17 		auipc  s6,0x3e
  0x1000026ec: cf8b0b13 		addi  s6,s6,-776 # 1000403e0 <k>
  0x1000026f0: 0003ea97 		auipc  s5,0x3e
  0x1000026f4: df0a8a93 		addi  s5,s5,-528 # 1000404e0 <r>
  0x1000026f8: 00038b93 		mv  s7,t2
  0x1000026fc: 00028613 		mv  a2,t0
  0x100002700: 000f0693 		mv  a3,t5
  0x100002704: 000f8713 		mv  a4,t6
  0x100002708: 00100513 		li  a0,1
  0x10000270c: 00500e13 		li  t3,5
  0x100002710: 00000893 		li  a7,0
  0x100002714: 08b9f863 		bgeu  s3,a1,1000027a4 <bench_md5_run+0x214>

922 Basic Block: (0x1000027a4, 0x1000027b8)
  0x1000027a4: 00e6c7b3 		xor  a5,a3,a4
  0x1000027a8: 00c7f7b3 		and  a5,a5,a2
  0x1000027ac: 00f6c7b3 		xor  a5,a3,a5
  0x1000027b0: 0007879b 		sext.w  a5,a5
  0x1000027b4: 00058c13 		mv  s8,a1
  0x1000027b8: f79ff06f 		j  100002730 <bench_md5_run+0x1a0>

923 Basic Block: (0x100002730, 0x100002790)
  0x100002730: 020c1c93 		slli  s9,s8,0x20
  0x100002734: 01ecdc13 		srli  s8,s9,0x1e
  0x100002738: 040c0c13 		addi  s8,s8,64
  0x10000273c: 000b2c83 		lw  s9,0(s6)
  0x100002740: 002c0c33 		add  s8,s8,sp
  0x100002744: fc0c2d03 		lw  s10,-64(s8)
  0x100002748: 000aac03 		lw  s8,0(s5)
  0x10000274c: 00fc87bb 		addw  a5,s9,a5
  0x100002750: 01a787bb 		addw  a5,a5,s10
  0x100002754: 017787bb 		addw  a5,a5,s7
  0x100002758: 41800bbb 		negw  s7,s8
  0x10000275c: 01879c3b 		sllw  s8,a5,s8
  0x100002760: 0177d7bb 		srlw  a5,a5,s7
  0x100002764: 00fc6c33 		or  s8,s8,a5
  0x100002768: 0015859b 		addiw  a1,a1,1
  0x10000276c: 00cc07bb 		addw  a5,s8,a2
  0x100002770: 0007071b 		sext.w  a4,a4
  0x100002774: 0006061b 		sext.w  a2,a2
  0x100002778: 00068b9b 		sext.w  s7,a3
  0x10000277c: 004b0b13 		addi  s6,s6,4
  0x100002780: 004a8a93 		addi  s5,s5,4
  0x100002784: 0078889b 		addiw  a7,a7,7 # 10007 <i+0xffe7>
  0x100002788: 003e0e1b 		addiw  t3,t3,3
  0x10000278c: 0055051b 		addiw  a0,a0,5
  0x100002790: 05258e63 		beq  a1,s2,1000027ec <bench_md5_run+0x25c>

924 Basic Block: (0x100002794, 0x1000027a0)
  0x100002794: 00070693 		mv  a3,a4
  0x100002798: 00060713 		mv  a4,a2
  0x10000279c: 00078613 		mv  a2,a5
  0x1000027a0: f6b9ece3 		bltu  s3,a1,100002718 <bench_md5_run+0x188>

925 Basic Block: (0x100002718, 0x100002724)
  0x100002718: 00e647b3 		xor  a5,a2,a4
  0x10000271c: 00d7f7b3 		and  a5,a5,a3
  0x100002720: 00f747b3 		xor  a5,a4,a5
  0x100002724: 08ba6c63 		bltu  s4,a1,1000027bc <bench_md5_run+0x22c>

926 Basic Block: (0x100002728, 0x100002790)
  0x100002728: 0007879b 		sext.w  a5,a5
  0x10000272c: 00f57c13 		andi  s8,a0,15
  0x100002730: 020c1c93 		slli  s9,s8,0x20
  0x100002734: 01ecdc13 		srli  s8,s9,0x1e
  0x100002738: 040c0c13 		addi  s8,s8,64
  0x10000273c: 000b2c83 		lw  s9,0(s6)
  0x100002740: 002c0c33 		add  s8,s8,sp
  0x100002744: fc0c2d03 		lw  s10,-64(s8)
  0x100002748: 000aac03 		lw  s8,0(s5)
  0x10000274c: 00fc87bb 		addw  a5,s9,a5
  0x100002750: 01a787bb 		addw  a5,a5,s10
  0x100002754: 017787bb 		addw  a5,a5,s7
  0x100002758: 41800bbb 		negw  s7,s8
  0x10000275c: 01879c3b 		sllw  s8,a5,s8
  0x100002760: 0177d7bb 		srlw  a5,a5,s7
  0x100002764: 00fc6c33 		or  s8,s8,a5
  0x100002768: 0015859b 		addiw  a1,a1,1
  0x10000276c: 00cc07bb 		addw  a5,s8,a2
  0x100002770: 0007071b 		sext.w  a4,a4
  0x100002774: 0006061b 		sext.w  a2,a2
  0x100002778: 00068b9b 		sext.w  s7,a3
  0x10000277c: 004b0b13 		addi  s6,s6,4
  0x100002780: 004a8a93 		addi  s5,s5,4
  0x100002784: 0078889b 		addiw  a7,a7,7 # 10007 <i+0xffe7>
  0x100002788: 003e0e1b 		addiw  t3,t3,3
  0x10000278c: 0055051b 		addiw  a0,a0,5
  0x100002790: 05258e63 		beq  a1,s2,1000027ec <bench_md5_run+0x25c>

927 Basic Block: (0x1000027bc, 0x1000027c4)
  0x1000027bc: 00d647b3 		xor  a5,a2,a3
  0x1000027c0: 00e7c7b3 		xor  a5,a5,a4
  0x1000027c4: 00b86863 		bltu  a6,a1,1000027d4 <bench_md5_run+0x244>

928 Basic Block: (0x1000027c8, 0x1000027d0)
  0x1000027c8: 0007879b 		sext.w  a5,a5
  0x1000027cc: 00fe7c13 		andi  s8,t3,15
  0x1000027d0: f61ff06f 		j  100002730 <bench_md5_run+0x1a0>

929 Basic Block: (0x1000027d4, 0x1000027e8)
  0x1000027d4: fff6c793 		not  a5,a3
  0x1000027d8: 00c7e7b3 		or  a5,a5,a2
  0x1000027dc: 00e7c7b3 		xor  a5,a5,a4
  0x1000027e0: 00f8fc13 		andi  s8,a7,15
  0x1000027e4: 0007879b 		sext.w  a5,a5
  0x1000027e8: f49ff06f 		j  100002730 <bench_md5_run+0x1a0>

930 Basic Block: (0x1000027ec, 0x100002800)
  0x1000027ec: 040e8e93 		addi  t4,t4,64
  0x1000027f0: 00d383bb 		addw  t2,t2,a3
  0x1000027f4: 00f282bb 		addw  t0,t0,a5
  0x1000027f8: 00cf8fbb 		addw  t6,t6,a2
  0x1000027fc: 00ef0f3b 		addw  t5,t5,a4
  0x100002800: ea6ee0e3 		bltu  t4,t1,1000026a0 <bench_md5_run+0x110>

931 Basic Block: (0x1000026a0, 0x1000026e0)
  0x1000026a0: 01d407b3 		add  a5,s0,t4
  0x1000026a4: 00010713 		mv  a4,sp
  0x1000026a8: 0017c583 		lbu  a1,1(a5)
  0x1000026ac: 0007c503 		lbu  a0,0(a5)
  0x1000026b0: 0027c603 		lbu  a2,2(a5)
  0x1000026b4: 0037c683 		lbu  a3,3(a5)
  0x1000026b8: 00859593 		slli  a1,a1,0x8
  0x1000026bc: 00a5e5b3 		or  a1,a1,a0
  0x1000026c0: 01061613 		slli  a2,a2,0x10
  0x1000026c4: 00b66633 		or  a2,a2,a1
  0x1000026c8: 01869693 		slli  a3,a3,0x18
  0x1000026cc: 00c6e6b3 		or  a3,a3,a2
  0x1000026d0: 00d72023 		sw  a3,0(a4)
  0x1000026d4: 00470713 		addi  a4,a4,4
  0x1000026d8: 04010693 		addi  a3,sp,64
  0x1000026dc: 00478793 		addi  a5,a5,4
  0x1000026e0: fce694e3 		bne  a3,a4,1000026a8 <bench_md5_run+0x118>

932 Basic Block: (0x100002790, 0x100002790)
  0x100002790: 05258e63 		beq  a1,s2,1000027ec <bench_md5_run+0x25c>

933 Basic Block: (0x1000027c4, 0x1000027c4)
  0x1000027c4: 00b86863 		bltu  a6,a1,1000027d4 <bench_md5_run+0x244>

934 Basic Block: (0x1000026e0, 0x1000026e0)
  0x1000026e0: fce694e3 		bne  a3,a4,1000026a8 <bench_md5_run+0x118>

935 Basic Block: (0x1000027a0, 0x1000027a0)
  0x1000027a0: f6b9ece3 		bltu  s3,a1,100002718 <bench_md5_run+0x188>

936 Basic Block: (0x1000027b8, 0x1000027b8)
  0x1000027b8: f79ff06f 		j  100002730 <bench_md5_run+0x1a0>

937 Basic Block: (0x1000027e8, 0x1000027e8)
  0x1000027e8: f49ff06f 		j  100002730 <bench_md5_run+0x1a0>

938 Basic Block: (0x100002724, 0x100002724)
  0x100002724: 08ba6c63 		bltu  s4,a1,1000027bc <bench_md5_run+0x22c>

939 Basic Block: (0x100002804, 0x1000028a4)
  0x100002804: 0182dc1b 		srliw  s8,t0,0x18
  0x100002808: 0083de9b 		srliw  t4,t2,0x8
  0x10000280c: 0103de1b 		srliw  t3,t2,0x10
  0x100002810: 0183d69b 		srliw  a3,t2,0x18
  0x100002814: 0082d31b 		srliw  t1,t0,0x8
  0x100002818: 0102d89b 		srliw  a7,t0,0x10
  0x10000281c: 008fd81b 		srliw  a6,t6,0x8
  0x100002820: 010fd51b 		srliw  a0,t6,0x10
  0x100002824: 018fd79b 		srliw  a5,t6,0x18
  0x100002828: 008f559b 		srliw  a1,t5,0x8
  0x10000282c: 010f561b 		srliw  a2,t5,0x10
  0x100002830: 018f571b 		srliw  a4,t5,0x18
  0x100002834: 00748023 		sb  t2,0(s1)
  0x100002838: 01d480a3 		sb  t4,1(s1)
  0x10000283c: 01c48123 		sb  t3,2(s1)
  0x100002840: 00d481a3 		sb  a3,3(s1)
  0x100002844: 00548223 		sb  t0,4(s1)
  0x100002848: 006482a3 		sb  t1,5(s1)
  0x10000284c: 01148323 		sb  a7,6(s1)
  0x100002850: 018483a3 		sb  s8,7(s1)
  0x100002854: 01f48423 		sb  t6,8(s1)
  0x100002858: 010484a3 		sb  a6,9(s1)
  0x10000285c: 00a48523 		sb  a0,10(s1)
  0x100002860: 00f485a3 		sb  a5,11(s1)
  0x100002864: 01e48623 		sb  t5,12(s1)
  0x100002868: 00b486a3 		sb  a1,13(s1)
  0x10000286c: 00c48723 		sb  a2,14(s1)
  0x100002870: 00e487a3 		sb  a4,15(s1)
  0x100002874: 09813403 		ld  s0,152(sp)
  0x100002878: 09013483 		ld  s1,144(sp)
  0x10000287c: 08813903 		ld  s2,136(sp)
  0x100002880: 08013983 		ld  s3,128(sp)
  0x100002884: 07813a03 		ld  s4,120(sp)
  0x100002888: 07013a83 		ld  s5,112(sp)
  0x10000288c: 06813b03 		ld  s6,104(sp)
  0x100002890: 06013b83 		ld  s7,96(sp)
  0x100002894: 05813c03 		ld  s8,88(sp)
  0x100002898: 05013c83 		ld  s9,80(sp)
  0x10000289c: 04813d03 		ld  s10,72(sp)
  0x1000028a0: 0a010113 		addi  sp,sp,160
  0x1000028a4: 00008067 		ret

940 Basic Block: (0x1000028b8, 0x1000028cc)
  0x1000028b8: 000fd517 		auipc  a0,0xfd
  0x1000028bc: 7d853503 		ld  a0,2008(a0) # 100100090 <digest>
  0x1000028c0: ff010113 		addi  sp,sp,-16
  0x1000028c4: 01050593 		addi  a1,a0,16
  0x1000028c8: 00113423 		sd  ra,8(sp)
  0x1000028cc: 255000ef 		jal  100003320 <checksum>

941 Basic Block: (0x1000028d0, 0x1000028f0)
  0x1000028d0: 000fe797 		auipc  a5,0xfe
  0x1000028d4: 8407b783 		ld  a5,-1984(a5) # 100100110 <setting>
  0x1000028d8: 0187a783 		lw  a5,24(a5)
  0x1000028dc: 00813083 		ld  ra,8(sp)
  0x1000028e0: 0005051b 		sext.w  a0,a0
  0x1000028e4: 40a78533 		sub  a0,a5,a0
  0x1000028e8: 00153513 		seqz  a0,a0
  0x1000028ec: 01010113 		addi  sp,sp,16
  0x1000028f0: 00008067 		ret

942 Basic Block: (0x1000048a4, 0x1000048d4)
  0x1000048a4: 04813083 		ld  ra,72(sp)
  0x1000048a8: 04013403 		ld  s0,64(sp)
  0x1000048ac: 03813483 		ld  s1,56(sp)
  0x1000048b0: 03013903 		ld  s2,48(sp)
  0x1000048b4: 02813983 		ld  s3,40(sp)
  0x1000048b8: 01813a83 		ld  s5,24(sp)
  0x1000048bc: 01013b03 		ld  s6,16(sp)
  0x1000048c0: 00813b83 		ld  s7,8(sp)
  0x1000048c4: 00013c03 		ld  s8,0(sp)
  0x1000048c8: 001a4513 		xori  a0,s4,1
  0x1000048cc: 02013a03 		ld  s4,32(sp)
  0x1000048d0: 05010113 		addi  sp,sp,80
  0x1000048d4: 00008067 		ret

943 Basic Block: (0x10000504c, 0x10000504c)
  0x10000504c: fc9ff0ef 		jal  100005014 <_halt>

