
image:     file format elf64-littleriscv


Disassembly of section .text:

0000000100000000 <_start>:
   100000000:	00000297          	auipc	t0,0x0
   100000004:	11828293          	addi	t0,t0,280 # 100000118 <interrupt_handler>
   100000008:	30529073          	csrw	mtvec,t0
   10000000c:	00000093          	li	ra,0
   100000010:	00000113          	li	sp,0
   100000014:	00000193          	li	gp,0
   100000018:	00000213          	li	tp,0
   10000001c:	00000293          	li	t0,0
   100000020:	00000313          	li	t1,0
   100000024:	00000393          	li	t2,0
   100000028:	00000413          	li	s0,0
   10000002c:	00000493          	li	s1,0
   100000030:	00000513          	li	a0,0
   100000034:	00000593          	li	a1,0
   100000038:	00000613          	li	a2,0
   10000003c:	00000693          	li	a3,0
   100000040:	00000713          	li	a4,0
   100000044:	00000793          	li	a5,0
   100000048:	00000813          	li	a6,0
   10000004c:	00000893          	li	a7,0
   100000050:	00000913          	li	s2,0
   100000054:	00000993          	li	s3,0
   100000058:	00000a13          	li	s4,0
   10000005c:	00000a93          	li	s5,0
   100000060:	00000b13          	li	s6,0
   100000064:	00000b93          	li	s7,0
   100000068:	00000c13          	li	s8,0
   10000006c:	00000c93          	li	s9,0
   100000070:	00000d13          	li	s10,0
   100000074:	00000d93          	li	s11,0
   100000078:	00000e13          	li	t3,0
   10000007c:	00000e93          	li	t4,0
   100000080:	00000f13          	li	t5,0
   100000084:	00000f93          	li	t6,0
   100000088:	00006537          	lui	a0,0x6
   10000008c:	30052073          	csrs	mstatus,a0
   100000090:	00305073          	csrwi	fcsr,0
   100000094:	f0000053          	fmv.w.x	ft0,zero
   100000098:	f00000d3          	fmv.w.x	ft1,zero
   10000009c:	f0000153          	fmv.w.x	ft2,zero
   1000000a0:	f00001d3          	fmv.w.x	ft3,zero
   1000000a4:	f0000253          	fmv.w.x	ft4,zero
   1000000a8:	f00002d3          	fmv.w.x	ft5,zero
   1000000ac:	f0000353          	fmv.w.x	ft6,zero
   1000000b0:	f00003d3          	fmv.w.x	ft7,zero
   1000000b4:	f0000453          	fmv.w.x	fs0,zero
   1000000b8:	f00004d3          	fmv.w.x	fs1,zero
   1000000bc:	f0000553          	fmv.w.x	fa0,zero
   1000000c0:	f00005d3          	fmv.w.x	fa1,zero
   1000000c4:	f0000653          	fmv.w.x	fa2,zero
   1000000c8:	f00006d3          	fmv.w.x	fa3,zero
   1000000cc:	f0000753          	fmv.w.x	fa4,zero
   1000000d0:	f00007d3          	fmv.w.x	fa5,zero
   1000000d4:	f0000853          	fmv.w.x	fa6,zero
   1000000d8:	f00008d3          	fmv.w.x	fa7,zero
   1000000dc:	f0000953          	fmv.w.x	fs2,zero
   1000000e0:	f00009d3          	fmv.w.x	fs3,zero
   1000000e4:	f0000a53          	fmv.w.x	fs4,zero
   1000000e8:	f0000ad3          	fmv.w.x	fs5,zero
   1000000ec:	f0000b53          	fmv.w.x	fs6,zero
   1000000f0:	f0000bd3          	fmv.w.x	fs7,zero
   1000000f4:	f0000c53          	fmv.w.x	fs8,zero
   1000000f8:	f0000cd3          	fmv.w.x	fs9,zero
   1000000fc:	f0000d53          	fmv.w.x	fs10,zero
   100000100:	f0000dd3          	fmv.w.x	fs11,zero
   100000104:	f0000e53          	fmv.w.x	ft8,zero
   100000108:	f0000ed3          	fmv.w.x	ft9,zero
   10000010c:	f0000f53          	fmv.w.x	ft10,zero
   100000110:	f0000fd3          	fmv.w.x	ft11,zero
   100000114:	0440006f          	j	100000158 <fuzz_main>

0000000100000118 <interrupt_handler>:
   100000118:	342022f3          	csrr	t0,mcause
   10000011c:	00200313          	li	t1,2
   100000120:	00530863          	beq	t1,t0,100000130 <illegal_instruction_handler>
   100000124:	800000b7          	lui	ra,0x80000
   100000128:	0000809b          	sext.w	ra,ra
   10000012c:	0000a103          	lw	sp,0(ra) # ffffffff80000000 <fuzz_main+0xfffffffe7ffffea8>

0000000100000130 <illegal_instruction_handler>:
   100000130:	300022f3          	csrr	t0,mstatus
   100000134:	00d2d293          	srli	t0,t0,0xd
   100000138:	0032f293          	andi	t0,t0,3
   10000013c:	00028863          	beqz	t0,10000014c <enable_fs>
   100000140:	800000b7          	lui	ra,0x80000
   100000144:	0000809b          	sext.w	ra,ra
   100000148:	0000a103          	lw	sp,0(ra) # ffffffff80000000 <fuzz_main+0xfffffffe7ffffea8>

000000010000014c <enable_fs>:
   10000014c:	00006537          	lui	a0,0x6
   100000150:	30052073          	csrs	mstatus,a0
   100000154:	30200073          	mret
